(dp0
S'METTS MARK'
p1
(dp2
S'to_messages'
p3
I807
sS'deferral_payments'
p4
S'NaN'
p5
sS'rescaled_to_poi'
p6
cnumpy.core.multiarray
_reconstruct
p7
(cnumpy
ndarray
p8
(I0
tp9
S'b'
p10
tp11
Rp12
(I1
(I1
tp13
cnumpy
dtype
p14
(S'f8'
p15
I0
I1
tp16
Rp17
(I3
S'<'
p18
NNNI-1
I-1
I0
tp19
bI00
S'\t*\x1c\xdd2\xe7Z?'
p20
tp21
bsS'rescaled_salary'
p22
g7
(g8
(I0
tp23
g10
tp24
Rp25
(I1
(I1
tp26
g17
I00
S'\xa78A\xf2\x0c\x11\xd5?'
p27
tp28
bsS'expenses'
p29
I94299
sS'poi'
p30
I00
sS'deferred_income'
p31
g5
sS'email_address'
p32
S'mark.metts@enron.com'
p33
sS'long_term_incentive'
p34
g5
sS'restricted_stock_deferred'
p35
g5
sS'shared_receipt_with_poi'
p36
I702
sS'loan_advances'
p37
g5
sS'from_messages'
p38
I29
sS'other'
p39
I1740
sS'to_poi_ratio'
p40
F0.034482758620689655
sS'director_fees'
p41
g5
sS'bonus'
p42
I600000
sS'total_stock_value'
p43
I585062
sS'from_poi_to_this_person'
p44
I38
sS'rescaled_to_poi_ratio'
p45
g7
(g8
(I0
tp46
g10
tp47
Rp48
(I1
(I1
tp49
g17
I00
S'\x96{\x1aa\xb9\xa7\xa1?'
p50
tp51
bsS'from_this_person_to_poi'
p52
I1
sS'from_poi_ratio'
p53
F0.04708798017348203
sS'restricted_stock'
p54
I585062
sS'rescaled_from_poi_ratio'
p55
g7
(g8
(I0
tp56
g10
tp57
Rp58
(I1
(I1
tp59
g17
I00
S'\xf2\xd3f5X\xbb\xcb?'
p60
tp61
bsS'rescaled_bonus'
p62
g7
(g8
(I0
tp63
g10
tp64
Rp65
(I1
(I1
tp66
g17
I00
S'333333\xb3?'
p67
tp68
bsS'salary'
p69
I365788
sS'total_payments'
p70
I1061827
sS'exercised_stock_options'
p71
g5
sS'rescaled_from_poi'
p72
g7
(g8
(I0
tp73
g10
tp74
Rp75
(I1
(I1
tp76
g17
I00
S'm\xb2\xc9&\x9bl\xb2?'
p77
tp78
bssS'BAXTER JOHN C'
p79
(dp80
g3
g5
sg4
I1295738
sg6
g7
(g8
(I0
tp81
g10
tp82
Rp83
(I1
(I1
tp84
g17
I00
S'\x00\x00\x00\x00\x00\x00\x00\x00'
p85
tp86
bsg22
g7
(g8
(I0
tp87
g10
tp88
Rp89
(I1
(I1
tp90
g17
I00
S'1\xc9\n\x06\x1e\xc4\xce?'
p91
tp92
bsg29
I11200
sg30
I00
sg31
I-1386055
sg32
g5
sg34
I1586055
sg35
g5
sg36
g5
sg37
g5
sg38
g5
sg39
I2660303
sg40
S'NaN'
p93
sg41
g5
sg42
I1200000
sg43
I10623258
sg44
g5
sg45
g7
(g8
(I0
tp94
g10
tp95
Rp96
(I1
(I1
tp97
g17
I00
S'\x00\x00\x00\x00\x00\x00\x00\x00'
p98
tp99
bsg52
g5
sg53
g93
sg54
I3942714
sg55
g7
(g8
(I0
tp100
g10
tp101
Rp102
(I1
(I1
tp103
g17
I00
S'\x00\x00\x00\x00\x00\x00\x00\x00'
p104
tp105
bsg62
g7
(g8
(I0
tp106
g10
tp107
Rp108
(I1
(I1
tp109
g17
I00
S'333333\xc3?'
p110
tp111
bsg69
I267102
sg70
I5634343
sg71
I6680544
sg72
g7
(g8
(I0
tp112
g10
tp113
Rp114
(I1
(I1
tp115
g17
I00
S'\x00\x00\x00\x00\x00\x00\x00\x00'
p116
tp117
bssS'ELLIOTT STEVEN'
p118
(dp119
g3
g5
sg4
g5
sg6
g7
(g8
(I0
tp120
g10
tp121
Rp122
(I1
(I1
tp123
g17
I00
S'\x00\x00\x00\x00\x00\x00\x00\x00'
p124
tp125
bsg22
g7
(g8
(I0
tp126
g10
tp127
Rp128
(I1
(I1
tp129
g17
I00
S'\xcb\xe7\x17\xbf\x96\xb0\xc3?'
p130
tp131
bsg29
I78552
sg30
I00
sg31
I-400729
sg32
S'steven.elliott@enron.com'
p132
sg34
g5
sg35
g5
sg36
g5
sg37
g5
sg38
g5
sg39
I12961
sg40
g93
sg41
g5
sg42
I350000
sg43
I6678735
sg44
g5
sg45
g7
(g8
(I0
tp133
g10
tp134
Rp135
(I1
(I1
tp136
g17
I00
S'\x00\x00\x00\x00\x00\x00\x00\x00'
p137
tp138
bsg52
g5
sg53
g93
sg54
I1788391
sg55
g7
(g8
(I0
tp139
g10
tp140
Rp141
(I1
(I1
tp142
g17
I00
S'\x00\x00\x00\x00\x00\x00\x00\x00'
p143
tp144
bsg62
g7
(g8
(I0
tp145
g10
tp146
Rp147
(I1
(I1
tp148
g17
I00
S'ffffff\xa6?'
p149
tp150
bsg69
I170941
sg70
I211725
sg71
I4890344
sg72
g7
(g8
(I0
tp151
g10
tp152
Rp153
(I1
(I1
tp154
g17
I00
S'\x00\x00\x00\x00\x00\x00\x00\x00'
p155
tp156
bssS'CORDES WILLIAM R'
p157
(dp158
g3
I764
sg4
g5
sg6
g7
(g8
(I0
tp159
g10
tp160
Rp161
(I1
(I1
tp162
g17
I00
S'\x00\x00\x00\x00\x00\x00\x00\x00'
p163
tp164
bsg22
g7
(g8
(I0
tp165
g10
tp166
Rp167
(I1
(I1
tp168
g17
I00
S'\x00\x00\x00\x00\x00\x00\x00\x00'
p169
tp170
bsg29
g5
sg30
I00
sg31
g5
sg32
S'bill.cordes@enron.com'
p171
sg34
g5
sg35
g5
sg36
I58
sg37
g5
sg38
I12
sg39
g5
sg40
F0.0
sg41
g5
sg42
g5
sg43
I1038185
sg44
I10
sg45
g7
(g8
(I0
tp172
g10
tp173
Rp174
(I1
(I1
tp175
g17
I00
S'\x00\x00\x00\x00\x00\x00\x00\x00'
p176
tp177
bsg52
I0
sg53
F0.013089005235602094
sg54
I386335
sg55
g7
(g8
(I0
tp178
g10
tp179
Rp180
(I1
(I1
tp181
g17
I00
S'\x94\xfd\x04A\x98\xd5\xae?'
p182
tp183
bsg62
g7
(g8
(I0
tp184
g10
tp185
Rp186
(I1
(I1
tp187
g17
I00
S'\x00\x00\x00\x00\x00\x00\x00\x00'
p188
tp189
bsg69
g5
sg70
g5
sg71
I651850
sg72
g7
(g8
(I0
tp190
g10
tp191
Rp192
(I1
(I1
tp193
g17
I00
S'e\x93M6\xd9d\x93?'
p194
tp195
bssS'HANNON KEVIN P'
p196
(dp197
g3
I1045
sg4
g5
sg6
g7
(g8
(I0
tp198
g10
tp199
Rp200
(I1
(I1
tp201
g17
I00
S'\x96{\x1aa\xb9\xa7\xa1?'
p202
tp203
bsg22
g7
(g8
(I0
tp204
g10
tp205
Rp206
(I1
(I1
tp207
g17
I00
S'\xcb\xc7B\xda\r\x06\xcc?'
p208
tp209
bsg29
I34039
sg30
I01
sg31
I-3117011
sg32
S'kevin.hannon@enron.com'
p210
sg34
I1617011
sg35
g5
sg36
I1035
sg37
g5
sg38
I32
sg39
I11350
sg40
F0.65625
sg41
g5
sg42
I1500000
sg43
I6391065
sg44
I32
sg45
g7
(g8
(I0
tp211
g10
tp212
Rp213
(I1
(I1
tp214
g17
I00
S'\x00\x00\x00\x00\x00\x00\xe5?'
p215
tp216
bsg52
I21
sg53
F0.03062200956937799
sg54
I853064
sg55
g7
(g8
(I0
tp217
g10
tp218
Rp219
(I1
(I1
tp220
g17
I00
S'\x91\x85\xe5\x07\xcf\x08\xc2?'
p221
tp222
bsg62
g7
(g8
(I0
tp223
g10
tp224
Rp225
(I1
(I1
tp226
g17
I00
S'\x00\x00\x00\x00\x00\x00\xc8?'
p227
tp228
bsg69
I243293
sg70
I288682
sg71
I5538001
sg72
g7
(g8
(I0
tp229
g10
tp230
Rp231
(I1
(I1
tp232
g17
I00
S'\x08\x1f|\xf0\xc1\x07\xaf?'
p233
tp234
bssS'MORDAUNT KRISTINA M'
p235
(dp236
g3
g5
sg4
g5
sg6
g7
(g8
(I0
tp237
g10
tp238
Rp239
(I1
(I1
tp240
g17
I00
S'\x00\x00\x00\x00\x00\x00\x00\x00'
p241
tp242
bsg22
g7
(g8
(I0
tp243
g10
tp244
Rp245
(I1
(I1
tp246
g17
I00
S'\x1cN\xb9\x15\xda\xc3\xce?'
p247
tp248
bsg29
I35018
sg30
I00
sg31
g5
sg32
S'kristina.mordaunt@enron.com'
p249
sg34
g5
sg35
g5
sg36
g5
sg37
g5
sg38
g5
sg39
I1411
sg40
g93
sg41
g5
sg42
I325000
sg43
I208510
sg44
g5
sg45
g7
(g8
(I0
tp250
g10
tp251
Rp252
(I1
(I1
tp253
g17
I00
S'\x00\x00\x00\x00\x00\x00\x00\x00'
p254
tp255
bsg52
g5
sg53
g93
sg54
I208510
sg55
g7
(g8
(I0
tp256
g10
tp257
Rp258
(I1
(I1
tp259
g17
I00
S'\x00\x00\x00\x00\x00\x00\x00\x00'
p260
tp261
bsg62
g7
(g8
(I0
tp262
g10
tp263
Rp264
(I1
(I1
tp265
g17
I00
S'\xcd\xcc\xcc\xcc\xcc\xcc\xa4?'
p266
tp267
bsg69
I267093
sg70
I628522
sg71
g5
sg72
g7
(g8
(I0
tp268
g10
tp269
Rp270
(I1
(I1
tp271
g17
I00
S'\x00\x00\x00\x00\x00\x00\x00\x00'
p272
tp273
bssS'MEYER ROCKFORD G'
p274
(dp275
g3
I232
sg4
I1848227
sg6
g7
(g8
(I0
tp276
g10
tp277
Rp278
(I1
(I1
tp279
g17
I00
S'\x00\x00\x00\x00\x00\x00\x00\x00'
p280
tp281
bsg22
g7
(g8
(I0
tp282
g10
tp283
Rp284
(I1
(I1
tp285
g17
I00
S'\x00\x00\x00\x00\x00\x00\x00\x00'
p286
tp287
bsg29
g5
sg30
I00
sg31
g5
sg32
S'rockford.meyer@enron.com'
p288
sg34
g5
sg35
g5
sg36
I22
sg37
g5
sg38
I28
sg39
g5
sg40
F0.0
sg41
g5
sg42
g5
sg43
I955873
sg44
I0
sg45
g7
(g8
(I0
tp289
g10
tp290
Rp291
(I1
(I1
tp292
g17
I00
S'\x00\x00\x00\x00\x00\x00\x00\x00'
p293
tp294
bsg52
I0
sg53
F0.0
sg54
I462384
sg55
g7
(g8
(I0
tp295
g10
tp296
Rp297
(I1
(I1
tp298
g17
I00
S'\x00\x00\x00\x00\x00\x00\x00\x00'
p299
tp300
bsg62
g7
(g8
(I0
tp301
g10
tp302
Rp303
(I1
(I1
tp304
g17
I00
S'\x00\x00\x00\x00\x00\x00\x00\x00'
p305
tp306
bsg69
g5
sg70
I1848227
sg71
I493489
sg72
g7
(g8
(I0
tp307
g10
tp308
Rp309
(I1
(I1
tp310
g17
I00
S'\x00\x00\x00\x00\x00\x00\x00\x00'
p311
tp312
bssS'MCMAHON JEFFREY'
p313
(dp314
g3
I2355
sg4
g5
sg6
g7
(g8
(I0
tp315
g10
tp316
Rp317
(I1
(I1
tp318
g17
I00
S"'\xe2\xa6S\xd9\xdb\xa5?"
p319
tp320
bsg22
g7
(g8
(I0
tp321
g10
tp322
Rp323
(I1
(I1
tp324
g17
I00
S'\xf2\xe95\x88\xc1U\xd5?'
p325
tp326
bsg29
I137108
sg30
I00
sg31
g5
sg32
S'jeffrey.mcmahon@enron.com'
p327
sg34
I694862
sg35
g5
sg36
I2228
sg37
g5
sg38
I48
sg39
I297353
sg40
F0.5416666666666666
sg41
g5
sg42
I2600000
sg43
I1662855
sg44
I58
sg45
g7
(g8
(I0
tp328
g10
tp329
Rp330
(I1
(I1
tp331
g17
I00
S'UUUUUU\xe1?'
p332
tp333
bsg52
I26
sg53
F0.024628450106157114
sg54
I558801
sg55
g7
(g8
(I0
tp334
g10
tp335
Rp336
(I1
(I1
tp337
g17
I00
S'\xda\xe8\xe1\xf9X\x02\xbd?'
p338
tp339
bsg62
g7
(g8
(I0
tp340
g10
tp341
Rp342
(I1
(I1
tp343
g17
I00
S'\xcd\xcc\xcc\xcc\xcc\xcc\xd4?'
p344
tp345
bsg69
I370448
sg70
I4099771
sg71
I1104054
sg72
g7
(g8
(I0
tp346
g10
tp347
Rp348
(I1
(I1
tp349
g17
I00
S'\x1f|\xf0\xc1\x07\x1f\xbc?'
p350
tp351
bssS'HORTON STANLEY C'
p352
(dp353
g3
I2350
sg4
I3131860
sg6
g7
(g8
(I0
tp354
g10
tp355
Rp356
(I1
(I1
tp357
g17
I00
S'hgJ\xaf\xbf8\x99?'
p358
tp359
bsg22
g7
(g8
(I0
tp360
g10
tp361
Rp362
(I1
(I1
tp363
g17
I00
S'\x00\x00\x00\x00\x00\x00\x00\x00'
p364
tp365
bsg29
g5
sg30
I00
sg31
g5
sg32
S'stanley.horton@enron.com'
p366
sg34
g5
sg35
g5
sg36
I1074
sg37
g5
sg38
I1073
sg39
g5
sg40
F0.013979496738117428
sg41
g5
sg42
g5
sg43
I7256648
sg44
I44
sg45
g7
(g8
(I0
tp367
g10
tp368
Rp369
(I1
(I1
tp370
g17
I00
S'["pJH\xa1\x8c?'
p371
tp372
bsg52
I15
sg53
F0.01872340425531915
sg54
I2046079
sg55
g7
(g8
(I0
tp373
g10
tp374
Rp375
(I1
(I1
tp376
g17
I00
S'\xf6J\x86\x86\xc4\r\xb6?'
p377
tp378
bsg62
g7
(g8
(I0
tp379
g10
tp380
Rp381
(I1
(I1
tp382
g17
I00
S'\x00\x00\x00\x00\x00\x00\x00\x00'
p383
tp384
bsg69
g5
sg70
I3131860
sg71
I5210569
sg72
g7
(g8
(I0
tp385
g10
tp386
Rp387
(I1
(I1
tp388
g17
I00
S'VUUUUU\xb5?'
p389
tp390
bssS'PIPER GREGORY F'
p391
(dp392
g3
I1238
sg4
I1130036
sg6
g7
(g8
(I0
tp393
g10
tp394
Rp395
(I1
(I1
tp396
g17
I00
S'\x87\x1f\xd5%f-\xb4?'
p397
tp398
bsg22
g7
(g8
(I0
tp399
g10
tp400
Rp401
(I1
(I1
tp402
g17
I00
S'#\xbf\x1b\x8a\xae\xb3\xc6?'
p403
tp404
bsg29
I43057
sg30
I00
sg31
I-33333
sg32
S'greg.piper@enron.com'
p405
sg34
g5
sg35
I-409554
sg36
I742
sg37
g5
sg38
I222
sg39
I778
sg40
F0.21621621621621623
sg41
g5
sg42
I400000
sg43
I880290
sg44
I61
sg45
g7
(g8
(I0
tp406
g10
tp407
Rp408
(I1
(I1
tp409
g17
I00
S'\xd0\xba\xc1\x14\xf9\xac\xcb?'
p410
tp411
bsg52
I48
sg53
F0.049273021001615507
sg54
I409554
sg55
g7
(g8
(I0
tp412
g10
tp413
Rp414
(I1
(I1
tp415
g17
I00
S'qA\xb7.\xc7\x04\xcd?'
p416
tp417
bsg62
g7
(g8
(I0
tp418
g10
tp419
Rp420
(I1
(I1
tp421
g17
I00
S'\x99\x99\x99\x99\x99\x99\xa9?'
p422
tp423
bsg69
I197091
sg70
I1737629
sg71
I880290
sg72
g7
(g8
(I0
tp424
g10
tp425
Rp426
(I1
(I1
tp427
g17
I00
S'\x94M6\xd9d\x93\xbd?'
p428
tp429
bssS'HUMPHREY GENE E'
p430
(dp431
g3
I128
sg4
I2964506
sg6
g7
(g8
(I0
tp432
g10
tp433
Rp434
(I1
(I1
tp435
g17
I00
S'\xaa\xec\xed\n\xa6\x95\x9c?'
p436
tp437
bsg22
g7
(g8
(I0
tp438
g10
tp439
Rp440
(I1
(I1
tp441
g17
I00
S'\x8303ee\x1d\xbe?'
p442
tp443
bsg29
I4994
sg30
I00
sg31
g5
sg32
S'gene.humphrey@enron.com'
p444
sg34
g5
sg35
g5
sg36
I119
sg37
g5
sg38
I17
sg39
g5
sg40
F1.0
sg41
g5
sg42
g5
sg43
I2282768
sg44
I10
sg45
g7
(g8
(I0
tp445
g10
tp446
Rp447
(I1
(I1
tp448
g17
I00
S'\x00\x00\x00\x00\x00\x00\xf0?'
p449
tp450
bsg52
I17
sg53
F0.078125
sg54
g5
sg55
g7
(g8
(I0
tp451
g10
tp452
Rp453
(I1
(I1
tp454
g17
I00
S'2\xb9\x82\x98\\\x01\xd7?'
p455
tp456
bsg62
g7
(g8
(I0
tp457
g10
tp458
Rp459
(I1
(I1
tp460
g17
I00
S'\x00\x00\x00\x00\x00\x00\x00\x00'
p461
tp462
bsg69
I130724
sg70
I3100224
sg71
I2282768
sg72
g7
(g8
(I0
tp463
g10
tp464
Rp465
(I1
(I1
tp466
g17
I00
S'e\x93M6\xd9d\x93?'
p467
tp468
bssS'UMANOFF ADAM S'
p469
(dp470
g3
I111
sg4
g5
sg6
g7
(g8
(I0
tp471
g10
tp472
Rp473
(I1
(I1
tp474
g17
I00
S'\x00\x00\x00\x00\x00\x00\x00\x00'
p475
tp476
bsg22
g7
(g8
(I0
tp477
g10
tp478
Rp479
(I1
(I1
tp480
g17
I00
S'\xcc_\xda\xff\xda\x9e\xd0?'
p481
tp482
bsg29
I53122
sg30
I00
sg31
g5
sg32
S'adam.umanoff@enron.com'
p483
sg34
g5
sg35
g5
sg36
I41
sg37
g5
sg38
I18
sg39
g5
sg40
F0.0
sg41
g5
sg42
I788750
sg43
g5
sg44
I12
sg45
g7
(g8
(I0
tp484
g10
tp485
Rp486
(I1
(I1
tp487
g17
I00
S'\x00\x00\x00\x00\x00\x00\x00\x00'
p488
tp489
bsg52
I0
sg53
F0.10810810810810811
sg54
g5
sg55
g7
(g8
(I0
tp490
g10
tp491
Rp492
(I1
(I1
tp493
g17
I00
S'\x9cI\xa4l\x9a\xd5\xdf?'
p494
tp495
bsg62
g7
(g8
(I0
tp496
g10
tp497
Rp498
(I1
(I1
tp499
g17
I00
S'=\n\xd7\xa3p=\xb9?'
p500
tp501
bsg69
I288589
sg70
I1130461
sg71
g5
sg72
g7
(g8
(I0
tp502
g10
tp503
Rp504
(I1
(I1
tp505
g17
I00
S'F\x17]t\xd1E\x97?'
p506
tp507
bssS'BLACHMAN JEREMY M'
p508
(dp509
g3
I2475
sg4
g5
sg6
g7
(g8
(I0
tp510
g10
tp511
Rp512
(I1
(I1
tp513
g17
I00
S'\t*\x1c\xdd2\xe7j?'
p514
tp515
bsg22
g7
(g8
(I0
tp516
g10
tp517
Rp518
(I1
(I1
tp519
g17
I00
S'\xf5\x10\xb3n\xf3\xa0\xcc?'
p520
tp521
bsg29
I84208
sg30
I00
sg31
g5
sg32
S'jeremy.blachman@enron.com'
p522
sg34
I831809
sg35
g5
sg36
I2326
sg37
g5
sg38
I14
sg39
I272
sg40
F0.14285714285714285
sg41
g5
sg42
I850000
sg43
I954354
sg44
I25
sg45
g7
(g8
(I0
tp523
g10
tp524
Rp525
(I1
(I1
tp526
g17
I00
S'\x92$I\x92$I\xc2?'
p527
tp528
bsg52
I2
sg53
F0.010101010101010102
sg54
I189041
sg55
g7
(g8
(I0
tp529
g10
tp530
Rp531
(I1
(I1
tp532
g17
I00
S'X\xd7Nc\x9f\xcb\xa7?'
p533
tp534
bsg62
g7
(g8
(I0
tp535
g10
tp536
Rp537
(I1
(I1
tp538
g17
I00
S'333333\xbb?'
p539
tp540
bsg69
I248546
sg70
I2014835
sg71
I765313
sg72
g7
(g8
(I0
tp541
g10
tp542
Rp543
(I1
(I1
tp544
g17
I00
S'>\xf8\xe0\x83\x0f>\xa8?'
p545
tp546
bssS'SUNDE MARTIN'
p547
(dp548
g3
I2647
sg4
g5
sg6
g7
(g8
(I0
tp549
g10
tp550
Rp551
(I1
(I1
tp552
g17
I00
S"'\xe2\xa6S\xd9\xdb\x95?"
p553
tp554
bsg22
g7
(g8
(I0
tp555
g10
tp556
Rp557
(I1
(I1
tp558
g17
I00
S'!\xfb1@\x91\xa8\xcd?'
p559
tp560
bsg29
g5
sg30
I00
sg31
g5
sg32
S'marty.sunde@enron.com'
p561
sg34
I476451
sg35
g5
sg36
I2565
sg37
g5
sg38
I38
sg39
I111122
sg40
F0.34210526315789475
sg41
g5
sg42
I700000
sg43
I698920
sg44
I37
sg45
g7
(g8
(I0
tp562
g10
tp563
Rp564
(I1
(I1
tp565
g17
I00
S'Q^Cy\r\xe5\xd5?'
p566
tp567
bsg52
I13
sg53
F0.013978088401964487
sg54
I698920
sg55
g7
(g8
(I0
tp568
g10
tp569
Rp570
(I1
(I1
tp571
g17
I00
S'q\xa22)\xe3v\xb0?'
p572
tp573
bsg62
g7
(g8
(I0
tp574
g10
tp575
Rp576
(I1
(I1
tp577
g17
I00
S'ffffff\xb6?'
p578
tp579
bsg69
I257486
sg70
I1545059
sg71
g5
sg72
g7
(g8
(I0
tp580
g10
tp581
Rp582
(I1
(I1
tp583
g17
I00
S'\xf1\xc1\x07\x1f|\xf0\xb1?'
p584
tp585
bssS'GIBBS DANA R'
p586
(dp587
g3
I169
sg4
I504610
sg6
g7
(g8
(I0
tp588
g10
tp589
Rp590
(I1
(I1
tp591
g17
I00
S'\x00\x00\x00\x00\x00\x00\x00\x00'
p592
tp593
bsg22
g7
(g8
(I0
tp594
g10
tp595
Rp596
(I1
(I1
tp597
g17
I00
S'\x00\x00\x00\x00\x00\x00\x00\x00'
p598
tp599
bsg29
g5
sg30
I00
sg31
g5
sg32
S'dana.gibbs@enron.com'
p600
sg34
I461912
sg35
g5
sg36
I23
sg37
g5
sg38
I12
sg39
g5
sg40
F0.0
sg41
g5
sg42
g5
sg43
I2218275
sg44
I0
sg45
g7
(g8
(I0
tp601
g10
tp602
Rp603
(I1
(I1
tp604
g17
I00
S'\x00\x00\x00\x00\x00\x00\x00\x00'
p605
tp606
bsg52
I0
sg53
F0.0
sg54
g5
sg55
g7
(g8
(I0
tp607
g10
tp608
Rp609
(I1
(I1
tp610
g17
I00
S'\x00\x00\x00\x00\x00\x00\x00\x00'
p611
tp612
bsg62
g7
(g8
(I0
tp613
g10
tp614
Rp615
(I1
(I1
tp616
g17
I00
S'\x00\x00\x00\x00\x00\x00\x00\x00'
p617
tp618
bsg69
g5
sg70
I966522
sg71
I2218275
sg72
g7
(g8
(I0
tp619
g10
tp620
Rp621
(I1
(I1
tp622
g17
I00
S'\x00\x00\x00\x00\x00\x00\x00\x00'
p623
tp624
bssS'LOWRY CHARLES P'
p625
(dp626
g3
g5
sg4
g5
sg6
g7
(g8
(I0
tp627
g10
tp628
Rp629
(I1
(I1
tp630
g17
I00
S'\x00\x00\x00\x00\x00\x00\x00\x00'
p631
tp632
bsg22
g7
(g8
(I0
tp633
g10
tp634
Rp635
(I1
(I1
tp636
g17
I00
S'\x00\x00\x00\x00\x00\x00\x00\x00'
p637
tp638
bsg29
g5
sg30
I00
sg31
g5
sg32
g5
sg34
g5
sg35
I-153686
sg36
g5
sg37
g5
sg38
g5
sg39
g5
sg40
g93
sg41
g5
sg42
g5
sg43
I372205
sg44
g5
sg45
g7
(g8
(I0
tp639
g10
tp640
Rp641
(I1
(I1
tp642
g17
I00
S'\x00\x00\x00\x00\x00\x00\x00\x00'
p643
tp644
bsg52
g5
sg53
g93
sg54
I153686
sg55
g7
(g8
(I0
tp645
g10
tp646
Rp647
(I1
(I1
tp648
g17
I00
S'\x00\x00\x00\x00\x00\x00\x00\x00'
p649
tp650
bsg62
g7
(g8
(I0
tp651
g10
tp652
Rp653
(I1
(I1
tp654
g17
I00
S'\x00\x00\x00\x00\x00\x00\x00\x00'
p655
tp656
bsg69
g5
sg70
g5
sg71
I372205
sg72
g7
(g8
(I0
tp657
g10
tp658
Rp659
(I1
(I1
tp660
g17
I00
S'\x00\x00\x00\x00\x00\x00\x00\x00'
p661
tp662
bssS'COLWELL WESLEY'
p663
(dp664
g3
I1758
sg4
I27610
sg6
g7
(g8
(I0
tp665
g10
tp666
Rp667
(I1
(I1
tp668
g17
I00
S'\xe6\\\x03\xf8\xf2~\x92?'
p669
tp670
bsg22
g7
(g8
(I0
tp671
g10
tp672
Rp673
(I1
(I1
tp674
g17
I00
S'N\xd7\x93\x9a)\x9e\xd0?'
p675
tp676
bsg29
I16514
sg30
I01
sg31
I-144062
sg32
S'wes.colwell@enron.com'
p677
sg34
g5
sg35
g5
sg36
I1132
sg37
g5
sg38
I40
sg39
I101740
sg40
F0.275
sg41
g5
sg42
I1200000
sg43
I698242
sg44
I240
sg45
g7
(g8
(I0
tp678
g10
tp679
Rp680
(I1
(I1
tp681
g17
I00
S'\x9a\x99\x99\x99\x99\x99\xd1?'
p682
tp683
bsg52
I11
sg53
F0.13651877133105803
sg54
I698242
sg55
g7
(g8
(I0
tp684
g10
tp685
Rp686
(I1
(I1
tp687
g17
I00
S'\x97\xe1\xabf\xa7\x19\xe4?'
p688
tp689
bsg62
g7
(g8
(I0
tp690
g10
tp691
Rp692
(I1
(I1
tp693
g17
I00
S'333333\xc3?'
p694
tp695
bsg69
I288542
sg70
I1490344
sg71
g5
sg72
g7
(g8
(I0
tp696
g10
tp697
Rp698
(I1
(I1
tp699
g17
I00
S'\x18]t\xd1E\x17\xdd?'
p700
tp701
bssS'MULLER MARK S'
p702
(dp703
g3
I136
sg4
I842924
sg6
g7
(g8
(I0
tp704
g10
tp705
Rp706
(I1
(I1
tp707
g17
I00
S'\x00\x00\x00\x00\x00\x00\x00\x00'
p708
tp709
bsg22
g7
(g8
(I0
tp710
g10
tp711
Rp712
(I1
(I1
tp713
g17
I00
S'en\xf2\xf1\x98\xfc\xcc?'
p714
tp715
bsg29
g5
sg30
I00
sg31
I-719000
sg32
S's..muller@enron.com'
p716
sg34
I1725545
sg35
g5
sg36
I114
sg37
g5
sg38
I16
sg39
I947
sg40
F0.0
sg41
g5
sg42
I1100000
sg43
I1416848
sg44
I12
sg45
g7
(g8
(I0
tp717
g10
tp718
Rp719
(I1
(I1
tp720
g17
I00
S'\x00\x00\x00\x00\x00\x00\x00\x00'
p721
tp722
bsg52
I0
sg53
F0.08823529411764706
sg54
I360528
sg55
g7
(g8
(I0
tp723
g10
tp724
Rp725
(I1
(I1
tp726
g17
I00
S'\xabRB\xaf\x83\xfb\xd9?'
p727
tp728
bsg62
g7
(g8
(I0
tp729
g10
tp730
Rp731
(I1
(I1
tp732
g17
I00
S'\x99\x99\x99\x99\x99\x99\xc1?'
p733
tp734
bsg69
I251654
sg70
I3202070
sg71
I1056320
sg72
g7
(g8
(I0
tp735
g10
tp736
Rp737
(I1
(I1
tp738
g17
I00
S'F\x17]t\xd1E\x97?'
p739
tp740
bssS'JACKSON CHARLENE R'
p741
(dp742
g3
I258
sg4
g5
sg6
g7
(g8
(I0
tp743
g10
tp744
Rp745
(I1
(I1
tp746
g17
I00
S'\xebq\x91f\x8c\xf2\x9f?'
p747
tp748
bsg22
g7
(g8
(I0
tp749
g10
tp750
Rp751
(I1
(I1
tp752
g17
I00
S'\x9a}j\xfee\x9e\xd0?'
p753
tp754
bsg29
I10181
sg30
I00
sg31
g5
sg32
S'charlene.jackson@enron.com'
p755
sg34
g5
sg35
g5
sg36
I117
sg37
g5
sg38
I56
sg39
I2435
sg40
F0.3392857142857143
sg41
g5
sg42
I250000
sg43
I725735
sg44
I25
sg45
g7
(g8
(I0
tp756
g10
tp757
Rp758
(I1
(I1
tp759
g17
I00
S'n\xdb\xb6m\xdb\xb6\xd5?'
p760
tp761
bsg52
I19
sg53
F0.09689922480620156
sg54
I540672
sg55
g7
(g8
(I0
tp762
g10
tp763
Rp764
(I1
(I1
tp765
g17
I00
S'o\x07\xb0y\xa2\x88\xdc?'
p766
tp767
bsg62
g7
(g8
(I0
tp768
g10
tp769
Rp770
(I1
(I1
tp771
g17
I00
S'\x00\x00\x00\x00\x00\x00\xa0?'
p772
tp773
bsg69
I288558
sg70
I551174
sg71
I185063
sg72
g7
(g8
(I0
tp774
g10
tp775
Rp776
(I1
(I1
tp777
g17
I00
S'>\xf8\xe0\x83\x0f>\xa8?'
p778
tp779
bssS'WESTFAHL RICHARD K'
p780
(dp781
g3
g5
sg4
g5
sg6
g7
(g8
(I0
tp782
g10
tp783
Rp784
(I1
(I1
tp785
g17
I00
S'\x00\x00\x00\x00\x00\x00\x00\x00'
p786
tp787
bsg22
g7
(g8
(I0
tp788
g10
tp789
Rp790
(I1
(I1
tp791
g17
I00
S'6\xac\xdf\xe3\x8d^\xad?'
p792
tp793
bsg29
I51870
sg30
I00
sg31
I-10800
sg32
S'dick.westfahl@enron.com'
p794
sg34
I256191
sg35
g5
sg36
g5
sg37
g5
sg38
g5
sg39
I401130
sg40
g93
sg41
g5
sg42
g5
sg43
I384930
sg44
g5
sg45
g7
(g8
(I0
tp795
g10
tp796
Rp797
(I1
(I1
tp798
g17
I00
S'\x00\x00\x00\x00\x00\x00\x00\x00'
p799
tp800
bsg52
g5
sg53
g93
sg54
I384930
sg55
g7
(g8
(I0
tp801
g10
tp802
Rp803
(I1
(I1
tp804
g17
I00
S'\x00\x00\x00\x00\x00\x00\x00\x00'
p805
tp806
bsg62
g7
(g8
(I0
tp807
g10
tp808
Rp809
(I1
(I1
tp810
g17
I00
S'\x00\x00\x00\x00\x00\x00\x00\x00'
p811
tp812
bsg69
I63744
sg70
I762135
sg71
g5
sg72
g7
(g8
(I0
tp813
g10
tp814
Rp815
(I1
(I1
tp816
g17
I00
S'\x00\x00\x00\x00\x00\x00\x00\x00'
p817
tp818
bssS'WALTERS GARETH W'
p819
(dp820
g3
g5
sg4
I53625
sg6
g7
(g8
(I0
tp821
g10
tp822
Rp823
(I1
(I1
tp824
g17
I00
S'\x00\x00\x00\x00\x00\x00\x00\x00'
p825
tp826
bsg22
g7
(g8
(I0
tp827
g10
tp828
Rp829
(I1
(I1
tp830
g17
I00
S'\x00\x00\x00\x00\x00\x00\x00\x00'
p831
tp832
bsg29
I33785
sg30
I00
sg31
g5
sg32
g5
sg34
g5
sg35
g5
sg36
g5
sg37
g5
sg38
g5
sg39
g5
sg40
g93
sg41
g5
sg42
g5
sg43
I1030329
sg44
g5
sg45
g7
(g8
(I0
tp833
g10
tp834
Rp835
(I1
(I1
tp836
g17
I00
S'\x00\x00\x00\x00\x00\x00\x00\x00'
p837
tp838
bsg52
g5
sg53
g93
sg54
g5
sg55
g7
(g8
(I0
tp839
g10
tp840
Rp841
(I1
(I1
tp842
g17
I00
S'\x00\x00\x00\x00\x00\x00\x00\x00'
p843
tp844
bsg62
g7
(g8
(I0
tp845
g10
tp846
Rp847
(I1
(I1
tp848
g17
I00
S'\x00\x00\x00\x00\x00\x00\x00\x00'
p849
tp850
bsg69
g5
sg70
I87410
sg71
I1030329
sg72
g7
(g8
(I0
tp851
g10
tp852
Rp853
(I1
(I1
tp854
g17
I00
S'\x00\x00\x00\x00\x00\x00\x00\x00'
p855
tp856
bssS'WALLS JR ROBERT H'
p857
(dp858
g3
I671
sg4
g5
sg6
g7
(g8
(I0
tp859
g10
tp860
Rp861
(I1
(I1
tp862
g17
I00
S'\x00\x00\x00\x00\x00\x00\x00\x00'
p863
tp864
bsg22
g7
(g8
(I0
tp865
g10
tp866
Rp867
(I1
(I1
tp868
g17
I00
S'+\xc1\xcd5\xd3\x90\xd4?'
p869
tp870
bsg29
I50936
sg30
I00
sg31
g5
sg32
S'rob.walls@enron.com'
p871
sg34
I540751
sg35
g5
sg36
I215
sg37
g5
sg38
I146
sg39
I2
sg40
F0.0
sg41
g5
sg42
I850000
sg43
I5898997
sg44
I17
sg45
g7
(g8
(I0
tp872
g10
tp873
Rp874
(I1
(I1
tp875
g17
I00
S'\x00\x00\x00\x00\x00\x00\x00\x00'
p876
tp877
bsg52
I0
sg53
F0.02533532041728763
sg54
I1552453
sg55
g7
(g8
(I0
tp878
g10
tp879
Rp880
(I1
(I1
tp881
g17
I00
S'\x81\xd7\x0cr~\xd7\xbd?'
p882
tp883
bsg62
g7
(g8
(I0
tp884
g10
tp885
Rp886
(I1
(I1
tp887
g17
I00
S'333333\xbb?'
p888
tp889
bsg69
I357091
sg70
I1798780
sg71
I4346544
sg72
g7
(g8
(I0
tp890
g10
tp891
Rp892
(I1
(I1
tp893
g17
I00
S'|\xf0\xc1\x07\x1f|\xa0?'
p894
tp895
bssS'KITCHEN LOUISE'
p896
(dp897
g3
I8305
sg4
g5
sg6
g7
(g8
(I0
tp898
g10
tp899
Rp900
(I1
(I1
tp901
g17
I00
S'\xdbW\x8f\x8b4c\xd4?'
p902
tp903
bsg22
g7
(g8
(I0
tp904
g10
tp905
Rp906
(I1
(I1
tp907
g17
I00
S'\xfd/j\x98\x17D\xcf?'
p908
tp909
bsg29
I5774
sg30
I00
sg31
g5
sg32
S'louise.kitchen@enron.com'
p910
sg34
g5
sg35
g5
sg36
I3669
sg37
g5
sg38
I1728
sg39
I93925
sg40
F0.11226851851851852
sg41
g5
sg42
I3100000
sg43
I547143
sg44
I251
sg45
g7
(g8
(I0
tp911
g10
tp912
Rp913
(I1
(I1
tp914
g17
I00
S'\xdaKh/\xa1\xbd\xbc?'
p915
tp916
bsg52
I194
sg53
F0.030222757375075255
sg54
I466101
sg55
g7
(g8
(I0
tp917
g10
tp918
Rp919
(I1
(I1
tp920
g17
I00
S'\xac\x1c\x03I\x9d\xcc\xc1?'
p921
tp922
bsg62
g7
(g8
(I0
tp923
g10
tp924
Rp925
(I1
(I1
tp926
g17
I00
S'\xcc\xcc\xcc\xcc\xcc\xcc\xd8?'
p927
tp928
bsg69
I271442
sg70
I3471141
sg71
I81042
sg72
g7
(g8
(I0
tp929
g10
tp930
Rp931
(I1
(I1
tp932
g17
I00
S'm\xb2\xc9&\x9bl\xde?'
p933
tp934
bssS'CHAN RONNIE'
p935
(dp936
g3
g5
sg4
g5
sg6
g7
(g8
(I0
tp937
g10
tp938
Rp939
(I1
(I1
tp940
g17
I00
S'\x00\x00\x00\x00\x00\x00\x00\x00'
p941
tp942
bsg22
g7
(g8
(I0
tp943
g10
tp944
Rp945
(I1
(I1
tp946
g17
I00
S'\x00\x00\x00\x00\x00\x00\x00\x00'
p947
tp948
bsg29
g5
sg30
I00
sg31
I-98784
sg32
g5
sg34
g5
sg35
I-32460
sg36
g5
sg37
g5
sg38
g5
sg39
g5
sg40
g93
sg41
I98784
sg42
g5
sg43
g5
sg44
g5
sg45
g7
(g8
(I0
tp949
g10
tp950
Rp951
(I1
(I1
tp952
g17
I00
S'\x00\x00\x00\x00\x00\x00\x00\x00'
p953
tp954
bsg52
g5
sg53
g93
sg54
I32460
sg55
g7
(g8
(I0
tp955
g10
tp956
Rp957
(I1
(I1
tp958
g17
I00
S'\x00\x00\x00\x00\x00\x00\x00\x00'
p959
tp960
bsg62
g7
(g8
(I0
tp961
g10
tp962
Rp963
(I1
(I1
tp964
g17
I00
S'\x00\x00\x00\x00\x00\x00\x00\x00'
p965
tp966
bsg69
g5
sg70
g5
sg71
g5
sg72
g7
(g8
(I0
tp967
g10
tp968
Rp969
(I1
(I1
tp970
g17
I00
S'\x00\x00\x00\x00\x00\x00\x00\x00'
p971
tp972
bssS'BELFER ROBERT'
p973
(dp974
g3
g5
sg4
I-102500
sg6
g7
(g8
(I0
tp975
g10
tp976
Rp977
(I1
(I1
tp978
g17
I00
S'\x00\x00\x00\x00\x00\x00\x00\x00'
p979
tp980
bsg22
g7
(g8
(I0
tp981
g10
tp982
Rp983
(I1
(I1
tp984
g17
I00
S'\x00\x00\x00\x00\x00\x00\x00\x00'
p985
tp986
bsg29
g5
sg30
I00
sg31
g5
sg32
g5
sg34
g5
sg35
I44093
sg36
g5
sg37
g5
sg38
g5
sg39
g5
sg40
g93
sg41
I3285
sg42
g5
sg43
I-44093
sg44
g5
sg45
g7
(g8
(I0
tp987
g10
tp988
Rp989
(I1
(I1
tp990
g17
I00
S'\x00\x00\x00\x00\x00\x00\x00\x00'
p991
tp992
bsg52
g5
sg53
g93
sg54
g5
sg55
g7
(g8
(I0
tp993
g10
tp994
Rp995
(I1
(I1
tp996
g17
I00
S'\x00\x00\x00\x00\x00\x00\x00\x00'
p997
tp998
bsg62
g7
(g8
(I0
tp999
g10
tp1000
Rp1001
(I1
(I1
tp1002
g17
I00
S'\x00\x00\x00\x00\x00\x00\x00\x00'
p1003
tp1004
bsg69
g5
sg70
I102500
sg71
I3285
sg72
g7
(g8
(I0
tp1005
g10
tp1006
Rp1007
(I1
(I1
tp1008
g17
I00
S'\x00\x00\x00\x00\x00\x00\x00\x00'
p1009
tp1010
bssS'SHANKMAN JEFFREY A'
p1011
(dp1012
g3
I3221
sg4
g5
sg6
g7
(g8
(I0
tp1013
g10
tp1014
Rp1015
(I1
(I1
tp1016
g17
I00
S'BC`\xfb\xeaq\xc1?'
p1017
tp1018
bsg22
g7
(g8
(I0
tp1019
g10
tp1020
Rp1021
(I1
(I1
tp1022
g17
I00
S'\xe9\xe3i\x11\xb1\x83\xd1?'
p1023
tp1024
bsg29
I178979
sg30
I00
sg31
g5
sg32
S'jeffrey.shankman@enron.com'
p1025
sg34
I554422
sg35
g5
sg36
I1730
sg37
g5
sg38
I2681
sg39
I1191
sg40
F0.030958597538232
sg41
g5
sg42
I2000000
sg43
I2072035
sg44
I94
sg45
g7
(g8
(I0
tp1026
g10
tp1027
Rp1028
(I1
(I1
tp1029
g17
I00
S'\xb3\xb1\xd3O\x9c\xb3\x9f?'
p1030
tp1031
bsg52
I83
sg53
F0.029183483390251473
sg54
I630137
sg55
g7
(g8
(I0
tp1032
g10
tp1033
Rp1034
(I1
(I1
tp1035
g17
I00
S'\xcd\x7f\xd8\xec\xec/\xc1?'
p1036
tp1037
bsg62
g7
(g8
(I0
tp1038
g10
tp1039
Rp1040
(I1
(I1
tp1041
g17
I00
S'\x00\x00\x00\x00\x00\x00\xd0?'
p1042
tp1043
bsg69
I304110
sg70
I3038702
sg71
I1441898
sg72
g7
(g8
(I0
tp1044
g10
tp1045
Rp1046
(I1
(I1
tp1047
g17
I00
S'\xca&\x9bl\xb2\xc9\xc6?'
p1048
tp1049
bssS'WODRASKA JOHN'
p1050
(dp1051
g3
g5
sg4
g5
sg6
g7
(g8
(I0
tp1052
g10
tp1053
Rp1054
(I1
(I1
tp1055
g17
I00
S'\x00\x00\x00\x00\x00\x00\x00\x00'
p1056
tp1057
bsg22
g7
(g8
(I0
tp1058
g10
tp1059
Rp1060
(I1
(I1
tp1061
g17
I00
S'\x00\x00\x00\x00\x00\x00\x00\x00'
p1062
tp1063
bsg29
g5
sg30
I00
sg31
g5
sg32
S'john.wodraska@enron.com'
p1064
sg34
g5
sg35
g5
sg36
g5
sg37
g5
sg38
g5
sg39
I189583
sg40
g93
sg41
g5
sg42
g5
sg43
g5
sg44
g5
sg45
g7
(g8
(I0
tp1065
g10
tp1066
Rp1067
(I1
(I1
tp1068
g17
I00
S'\x00\x00\x00\x00\x00\x00\x00\x00'
p1069
tp1070
bsg52
g5
sg53
g93
sg54
g5
sg55
g7
(g8
(I0
tp1071
g10
tp1072
Rp1073
(I1
(I1
tp1074
g17
I00
S'\x00\x00\x00\x00\x00\x00\x00\x00'
p1075
tp1076
bsg62
g7
(g8
(I0
tp1077
g10
tp1078
Rp1079
(I1
(I1
tp1080
g17
I00
S'\x00\x00\x00\x00\x00\x00\x00\x00'
p1081
tp1082
bsg69
g5
sg70
I189583
sg71
g5
sg72
g7
(g8
(I0
tp1083
g10
tp1084
Rp1085
(I1
(I1
tp1086
g17
I00
S'\x00\x00\x00\x00\x00\x00\x00\x00'
p1087
tp1088
bssS'BERGSIEKER RICHARD P'
p1089
(dp1090
g3
I383
sg4
g5
sg6
g7
(g8
(I0
tp1091
g10
tp1092
Rp1093
(I1
(I1
tp1094
g17
I00
S'\x00\x00\x00\x00\x00\x00\x00\x00'
p1095
tp1096
bsg22
g7
(g8
(I0
tp1097
g10
tp1098
Rp1099
(I1
(I1
tp1100
g17
I00
S'\xc9|\xbc\x0eP\xa5\xc5?'
p1101
tp1102
bsg29
I59175
sg30
I00
sg31
I-485813
sg32
S'rick.bergsieker@enron.com'
p1103
sg34
I180250
sg35
g5
sg36
I233
sg37
g5
sg38
I59
sg39
I427316
sg40
F0.0
sg41
g5
sg42
I250000
sg43
I659249
sg44
I4
sg45
g7
(g8
(I0
tp1104
g10
tp1105
Rp1106
(I1
(I1
tp1107
g17
I00
S'\x00\x00\x00\x00\x00\x00\x00\x00'
p1108
tp1109
bsg52
I0
sg53
F0.010443864229765013
sg54
I659249
sg55
g7
(g8
(I0
tp1110
g10
tp1111
Rp1112
(I1
(I1
tp1113
g17
I00
S"\x82'FKc\x9a\xa8?"
p1114
tp1115
bsg62
g7
(g8
(I0
tp1116
g10
tp1117
Rp1118
(I1
(I1
tp1119
g17
I00
S'\x00\x00\x00\x00\x00\x00\xa0?'
p1120
tp1121
bsg69
I187922
sg70
I618850
sg71
g5
sg72
g7
(g8
(I0
tp1122
g10
tp1123
Rp1124
(I1
(I1
tp1125
g17
I00
S'\x08\x1f|\xf0\xc1\x07\x7f?'
p1126
tp1127
bssS'URQUHART JOHN A'
p1128
(dp1129
g3
g5
sg4
g5
sg6
g7
(g8
(I0
tp1130
g10
tp1131
Rp1132
(I1
(I1
tp1133
g17
I00
S'\x00\x00\x00\x00\x00\x00\x00\x00'
p1134
tp1135
bsg22
g7
(g8
(I0
tp1136
g10
tp1137
Rp1138
(I1
(I1
tp1139
g17
I00
S'\x00\x00\x00\x00\x00\x00\x00\x00'
p1140
tp1141
bsg29
I228656
sg30
I00
sg31
I-36666
sg32
g5
sg34
g5
sg35
g5
sg36
g5
sg37
g5
sg38
g5
sg39
g5
sg40
g93
sg41
I36666
sg42
g5
sg43
g5
sg44
g5
sg45
g7
(g8
(I0
tp1142
g10
tp1143
Rp1144
(I1
(I1
tp1145
g17
I00
S'\x00\x00\x00\x00\x00\x00\x00\x00'
p1146
tp1147
bsg52
g5
sg53
g93
sg54
g5
sg55
g7
(g8
(I0
tp1148
g10
tp1149
Rp1150
(I1
(I1
tp1151
g17
I00
S'\x00\x00\x00\x00\x00\x00\x00\x00'
p1152
tp1153
bsg62
g7
(g8
(I0
tp1154
g10
tp1155
Rp1156
(I1
(I1
tp1157
g17
I00
S'\x00\x00\x00\x00\x00\x00\x00\x00'
p1158
tp1159
bsg69
g5
sg70
I228656
sg71
g5
sg72
g7
(g8
(I0
tp1160
g10
tp1161
Rp1162
(I1
(I1
tp1163
g17
I00
S'\x00\x00\x00\x00\x00\x00\x00\x00'
p1164
tp1165
bssS'BIBI PHILIPPE A'
p1166
(dp1167
g3
I1607
sg4
g5
sg6
g7
(g8
(I0
tp1168
g10
tp1169
Rp1170
(I1
(I1
tp1171
g17
I00
S'\t*\x1c\xdd2\xe7\x8a?'
p1172
tp1173
bsg22
g7
(g8
(I0
tp1174
g10
tp1175
Rp1176
(I1
(I1
tp1177
g17
I00
S'k\xc8F\x8f9\x9b\xc8?'
p1178
tp1179
bsg29
I38559
sg30
I00
sg31
g5
sg32
S'philippe.bibi@enron.com'
p1180
sg34
I369721
sg35
g5
sg36
I1336
sg37
g5
sg38
I40
sg39
I425688
sg40
F0.2
sg41
g5
sg42
I1000000
sg43
I1843816
sg44
I23
sg45
g7
(g8
(I0
tp1181
g10
tp1182
Rp1183
(I1
(I1
tp1184
g17
I00
S'\x9a\x99\x99\x99\x99\x99\xc9?'
p1185
tp1186
bsg52
I8
sg53
F0.01431238332296204
sg54
I378082
sg55
g7
(g8
(I0
tp1187
g10
tp1188
Rp1189
(I1
(I1
tp1190
g17
I00
S'\xaa\xc1\x17g\xb0\xdb\xb0?'
p1191
tp1192
bsg62
g7
(g8
(I0
tp1193
g10
tp1194
Rp1195
(I1
(I1
tp1196
g17
I00
S'\x00\x00\x00\x00\x00\x00\xc0?'
p1197
tp1198
bsg69
I213625
sg70
I2047593
sg71
I1465734
sg72
g7
(g8
(I0
tp1199
g10
tp1200
Rp1201
(I1
(I1
tp1202
g17
I00
S'N6\xd9d\x93M\xa6?'
p1203
tp1204
bssS'RIEKER PAULA H'
p1205
(dp1206
g3
I1328
sg4
I214678
sg6
g7
(g8
(I0
tp1207
g10
tp1208
Rp1209
(I1
(I1
tp1210
g17
I00
S'\x87\x1f\xd5%f-\xb4?'
p1211
tp1212
bsg22
g7
(g8
(I0
tp1213
g10
tp1214
Rp1215
(I1
(I1
tp1216
g17
I00
S'S\x80\xf9\xdcC\xb4\xcc?'
p1217
tp1218
bsg29
I33271
sg30
I01
sg31
I-100000
sg32
S'paula.rieker@enron.com'
p1219
sg34
g5
sg35
g5
sg36
I1258
sg37
g5
sg38
I82
sg39
I1950
sg40
F0.5853658536585366
sg41
g5
sg42
I700000
sg43
I1918887
sg44
I35
sg45
g7
(g8
(I0
tp1220
g10
tp1221
Rp1222
(I1
(I1
tp1223
g17
I00
S'\xbb\x12\xb5+Q\xbb\xe2?'
p1224
tp1225
bsg52
I48
sg53
F0.02635542168674699
sg54
I283649
sg55
g7
(g8
(I0
tp1226
g10
tp1227
Rp1228
(I1
(I1
tp1229
g17
I00
S'$\xdeS*\x17\x0b\xbf?'
p1230
tp1231
bsg62
g7
(g8
(I0
tp1232
g10
tp1233
Rp1234
(I1
(I1
tp1235
g17
I00
S'ffffff\xb6?'
p1236
tp1237
bsg69
I249201
sg70
I1099100
sg71
I1635238
sg72
g7
(g8
(I0
tp1238
g10
tp1239
Rp1240
(I1
(I1
tp1241
g17
I00
S'\xf8\xe0\x83\x0f>\xf8\xb0?'
p1242
tp1243
bssS'WHALEY DAVID A'
p1244
(dp1245
g3
g5
sg4
g5
sg6
g7
(g8
(I0
tp1246
g10
tp1247
Rp1248
(I1
(I1
tp1249
g17
I00
S'\x00\x00\x00\x00\x00\x00\x00\x00'
p1250
tp1251
bsg22
g7
(g8
(I0
tp1252
g10
tp1253
Rp1254
(I1
(I1
tp1255
g17
I00
S'\x00\x00\x00\x00\x00\x00\x00\x00'
p1256
tp1257
bsg29
g5
sg30
I00
sg31
g5
sg32
g5
sg34
g5
sg35
g5
sg36
g5
sg37
g5
sg38
g5
sg39
g5
sg40
g93
sg41
g5
sg42
g5
sg43
I98718
sg44
g5
sg45
g7
(g8
(I0
tp1258
g10
tp1259
Rp1260
(I1
(I1
tp1261
g17
I00
S'\x00\x00\x00\x00\x00\x00\x00\x00'
p1262
tp1263
bsg52
g5
sg53
g93
sg54
g5
sg55
g7
(g8
(I0
tp1264
g10
tp1265
Rp1266
(I1
(I1
tp1267
g17
I00
S'\x00\x00\x00\x00\x00\x00\x00\x00'
p1268
tp1269
bsg62
g7
(g8
(I0
tp1270
g10
tp1271
Rp1272
(I1
(I1
tp1273
g17
I00
S'\x00\x00\x00\x00\x00\x00\x00\x00'
p1274
tp1275
bsg69
g5
sg70
g5
sg71
I98718
sg72
g7
(g8
(I0
tp1276
g10
tp1277
Rp1278
(I1
(I1
tp1279
g17
I00
S'\x00\x00\x00\x00\x00\x00\x00\x00'
p1280
tp1281
bssS'BECK SALLY W'
p1282
(dp1283
g3
I7315
sg4
g5
sg6
g7
(g8
(I0
tp1284
g10
tp1285
Rp1286
(I1
(I1
tp1287
g17
I00
S'\xb1;\xb2XMH\xe4?'
p1288
tp1289
bsg22
g7
(g8
(I0
tp1290
g10
tp1291
Rp1292
(I1
(I1
tp1293
g17
I00
S"\x11'M*L\xa5\xca?"
p1294
tp1295
bsg29
I37172
sg30
I00
sg31
g5
sg32
S'sally.beck@enron.com'
p1296
sg34
g5
sg35
g5
sg36
I2639
sg37
g5
sg38
I4343
sg39
I566
sg40
F0.08887865530739121
sg41
g5
sg42
I700000
sg43
I126027
sg44
I144
sg45
g7
(g8
(I0
tp1297
g10
tp1298
Rp1299
(I1
(I1
tp1300
g17
I00
S']\x92\xdbe\xc0\xc0\xb6?'
p1301
tp1302
bsg52
I386
sg53
F0.01968557758031442
sg54
I126027
sg55
g7
(g8
(I0
tp1303
g10
tp1304
Rp1305
(I1
(I1
tp1306
g17
I00
S'\x03>p\x9c\xe5/\xb7?'
p1307
tp1308
bsg62
g7
(g8
(I0
tp1309
g10
tp1310
Rp1311
(I1
(I1
tp1312
g17
I00
S'ffffff\xb6?'
p1313
tp1314
bsg69
I231330
sg70
I969068
sg71
g5
sg72
g7
(g8
(I0
tp1315
g10
tp1316
Rp1317
(I1
(I1
tp1318
g17
I00
S't\xd1E\x17]t\xd1?'
p1319
tp1320
bssS'HAUG DAVID L'
p1321
(dp1322
g3
I573
sg4
g5
sg6
g7
(g8
(I0
tp1323
g10
tp1324
Rp1325
(I1
(I1
tp1326
g17
I00
S'\xc8\xa4x\x81L\x8a\x87?'
p1327
tp1328
bsg22
g7
(g8
(I0
tp1329
g10
tp1330
Rp1331
(I1
(I1
tp1332
g17
I00
S'\x00\x00\x00\x00\x00\x00\x00\x00'
p1333
tp1334
bsg29
I475
sg30
I00
sg31
g5
sg32
S'david.haug@enron.com'
p1335
sg34
g5
sg35
g5
sg36
I471
sg37
g5
sg38
I19
sg39
g5
sg40
F0.3684210526315789
sg41
g5
sg42
g5
sg43
I2217299
sg44
I4
sg45
g7
(g8
(I0
tp1336
g10
tp1337
Rp1338
(I1
(I1
tp1339
g17
I00
S'Cy\r\xe55\x94\xd7?'
p1340
tp1341
bsg52
I7
sg53
F0.006980802792321117
sg54
I2217299
sg55
g7
(g8
(I0
tp1342
g10
tp1343
Rp1344
(I1
(I1
tp1345
g17
I00
S'\xb5\xfeW\xcd\xeaq\xa0?'
p1346
tp1347
bsg62
g7
(g8
(I0
tp1348
g10
tp1349
Rp1350
(I1
(I1
tp1351
g17
I00
S'\x00\x00\x00\x00\x00\x00\x00\x00'
p1352
tp1353
bsg69
g5
sg70
I475
sg71
g5
sg72
g7
(g8
(I0
tp1354
g10
tp1355
Rp1356
(I1
(I1
tp1357
g17
I00
S'\x08\x1f|\xf0\xc1\x07\x7f?'
p1358
tp1359
bssS'ECHOLS JOHN B'
p1360
(dp1361
g3
g5
sg4
g5
sg6
g7
(g8
(I0
tp1362
g10
tp1363
Rp1364
(I1
(I1
tp1365
g17
I00
S'\x00\x00\x00\x00\x00\x00\x00\x00'
p1366
tp1367
bsg22
g7
(g8
(I0
tp1368
g10
tp1369
Rp1370
(I1
(I1
tp1371
g17
I00
S'\x02\xc6\xdb\xce\xe9\xfd\xc4?'
p1372
tp1373
bsg29
I21530
sg30
I00
sg31
g5
sg32
S'john.echols@enron.com'
p1374
sg34
I2234774
sg35
g5
sg36
g5
sg37
g5
sg38
g5
sg39
I53775
sg40
g93
sg41
g5
sg42
I200000
sg43
I1008941
sg44
g5
sg45
g7
(g8
(I0
tp1375
g10
tp1376
Rp1377
(I1
(I1
tp1378
g17
I00
S'\x00\x00\x00\x00\x00\x00\x00\x00'
p1379
tp1380
bsg52
g5
sg53
g93
sg54
I407503
sg55
g7
(g8
(I0
tp1381
g10
tp1382
Rp1383
(I1
(I1
tp1384
g17
I00
S'\x00\x00\x00\x00\x00\x00\x00\x00'
p1385
tp1386
bsg62
g7
(g8
(I0
tp1387
g10
tp1388
Rp1389
(I1
(I1
tp1390
g17
I00
S'\x99\x99\x99\x99\x99\x99\x99?'
p1391
tp1392
bsg69
I182245
sg70
I2692324
sg71
I601438
sg72
g7
(g8
(I0
tp1393
g10
tp1394
Rp1395
(I1
(I1
tp1396
g17
I00
S'\x00\x00\x00\x00\x00\x00\x00\x00'
p1397
tp1398
bssS'MENDELSOHN JOHN'
p1399
(dp1400
g3
g5
sg4
g5
sg6
g7
(g8
(I0
tp1401
g10
tp1402
Rp1403
(I1
(I1
tp1404
g17
I00
S'\x00\x00\x00\x00\x00\x00\x00\x00'
p1405
tp1406
bsg22
g7
(g8
(I0
tp1407
g10
tp1408
Rp1409
(I1
(I1
tp1410
g17
I00
S'\x00\x00\x00\x00\x00\x00\x00\x00'
p1411
tp1412
bsg29
I148
sg30
I00
sg31
I-103750
sg32
g5
sg34
g5
sg35
g5
sg36
g5
sg37
g5
sg38
g5
sg39
g5
sg40
g93
sg41
I103750
sg42
g5
sg43
g5
sg44
g5
sg45
g7
(g8
(I0
tp1413
g10
tp1414
Rp1415
(I1
(I1
tp1416
g17
I00
S'\x00\x00\x00\x00\x00\x00\x00\x00'
p1417
tp1418
bsg52
g5
sg53
g93
sg54
g5
sg55
g7
(g8
(I0
tp1419
g10
tp1420
Rp1421
(I1
(I1
tp1422
g17
I00
S'\x00\x00\x00\x00\x00\x00\x00\x00'
p1423
tp1424
bsg62
g7
(g8
(I0
tp1425
g10
tp1426
Rp1427
(I1
(I1
tp1428
g17
I00
S'\x00\x00\x00\x00\x00\x00\x00\x00'
p1429
tp1430
bsg69
g5
sg70
I148
sg71
g5
sg72
g7
(g8
(I0
tp1431
g10
tp1432
Rp1433
(I1
(I1
tp1434
g17
I00
S'\x00\x00\x00\x00\x00\x00\x00\x00'
p1435
tp1436
bssS'HICKERSON GARY J'
p1437
(dp1438
g3
I1320
sg4
g5
sg6
g7
(g8
(I0
tp1439
g10
tp1440
Rp1441
(I1
(I1
tp1442
g17
I00
S'\t*\x1c\xdd2\xe7Z?'
p1443
tp1444
bsg22
g7
(g8
(I0
tp1445
g10
tp1446
Rp1447
(I1
(I1
tp1448
g17
I00
S'\x08\xdf\xdd\x81\x0ee\xc8?'
p1449
tp1450
bsg29
I98849
sg30
I00
sg31
g5
sg32
S'gary.hickerson@enron.com'
p1451
sg34
I69223
sg35
g5
sg36
I900
sg37
g5
sg38
I27
sg39
I1936
sg40
F0.037037037037037035
sg41
g5
sg42
I1700000
sg43
I441096
sg44
I40
sg45
g7
(g8
(I0
tp1452
g10
tp1453
Rp1454
(I1
(I1
tp1455
g17
I00
S'h/\xa1\xbd\x84\xf6\xa2?'
p1456
tp1457
bsg52
I1
sg53
F0.030303030303030304
sg54
I441096
sg55
g7
(g8
(I0
tp1458
g10
tp1459
Rp1460
(I1
(I1
tp1461
g17
I00
S'\x82!{\x8a\xb7\xd8\xc1?'
p1462
tp1463
bsg62
g7
(g8
(I0
tp1464
g10
tp1465
Rp1466
(I1
(I1
tp1467
g17
I00
S'333333\xcb?'
p1468
tp1469
bsg69
I211788
sg70
I2081796
sg71
g5
sg72
g7
(g8
(I0
tp1470
g10
tp1471
Rp1472
(I1
(I1
tp1473
g17
I00
S'e\x93M6\xd9d\xb3?'
p1474
tp1475
bssS'CLINE KENNETH W'
p1476
(dp1477
g3
g5
sg4
g5
sg6
g7
(g8
(I0
tp1478
g10
tp1479
Rp1480
(I1
(I1
tp1481
g17
I00
S'\x00\x00\x00\x00\x00\x00\x00\x00'
p1482
tp1483
bsg22
g7
(g8
(I0
tp1484
g10
tp1485
Rp1486
(I1
(I1
tp1487
g17
I00
S'\x00\x00\x00\x00\x00\x00\x00\x00'
p1488
tp1489
bsg29
g5
sg30
I00
sg31
g5
sg32
g5
sg34
g5
sg35
I-472568
sg36
g5
sg37
g5
sg38
g5
sg39
g5
sg40
g93
sg41
g5
sg42
g5
sg43
I189518
sg44
g5
sg45
g7
(g8
(I0
tp1490
g10
tp1491
Rp1492
(I1
(I1
tp1493
g17
I00
S'\x00\x00\x00\x00\x00\x00\x00\x00'
p1494
tp1495
bsg52
g5
sg53
g93
sg54
I662086
sg55
g7
(g8
(I0
tp1496
g10
tp1497
Rp1498
(I1
(I1
tp1499
g17
I00
S'\x00\x00\x00\x00\x00\x00\x00\x00'
p1500
tp1501
bsg62
g7
(g8
(I0
tp1502
g10
tp1503
Rp1504
(I1
(I1
tp1505
g17
I00
S'\x00\x00\x00\x00\x00\x00\x00\x00'
p1506
tp1507
bsg69
g5
sg70
g5
sg71
g5
sg72
g7
(g8
(I0
tp1508
g10
tp1509
Rp1510
(I1
(I1
tp1511
g17
I00
S'\x00\x00\x00\x00\x00\x00\x00\x00'
p1512
tp1513
bssS'LEWIS RICHARD'
p1514
(dp1515
g3
I952
sg4
g5
sg6
g7
(g8
(I0
tp1516
g10
tp1517
Rp1518
(I1
(I1
tp1519
g17
I00
S'\x00\x00\x00\x00\x00\x00\x00\x00'
p1520
tp1521
bsg22
g7
(g8
(I0
tp1522
g10
tp1523
Rp1524
(I1
(I1
tp1525
g17
I00
S'\x00\x00\x00\x00\x00\x00\x00\x00'
p1526
tp1527
bsg29
g5
sg30
I00
sg31
g5
sg32
S'richard.lewis@enron.com'
p1528
sg34
g5
sg35
g5
sg36
I739
sg37
g5
sg38
I26
sg39
g5
sg40
F0.0
sg41
g5
sg42
g5
sg43
I850477
sg44
I10
sg45
g7
(g8
(I0
tp1529
g10
tp1530
Rp1531
(I1
(I1
tp1532
g17
I00
S'\x00\x00\x00\x00\x00\x00\x00\x00'
p1533
tp1534
bsg52
I0
sg53
F0.01050420168067227
sg54
g5
sg55
g7
(g8
(I0
tp1535
g10
tp1536
Rp1537
(I1
(I1
tp1538
g17
I00
S'\xbbN\x88\x8e\xc6\xbe\xa8?'
p1539
tp1540
bsg62
g7
(g8
(I0
tp1541
g10
tp1542
Rp1543
(I1
(I1
tp1544
g17
I00
S'\x00\x00\x00\x00\x00\x00\x00\x00'
p1545
tp1546
bsg69
g5
sg70
g5
sg71
I850477
sg72
g7
(g8
(I0
tp1547
g10
tp1548
Rp1549
(I1
(I1
tp1550
g17
I00
S'e\x93M6\xd9d\x93?'
p1551
tp1552
bssS'HAYES ROBERT E'
p1553
(dp1554
g3
I504
sg4
I7961
sg6
g7
(g8
(I0
tp1555
g10
tp1556
Rp1557
(I1
(I1
tp1558
g17
I00
S'\x00\x00\x00\x00\x00\x00\x00\x00'
p1559
tp1560
bsg22
g7
(g8
(I0
tp1561
g10
tp1562
Rp1563
(I1
(I1
tp1564
g17
I00
S'\x00\x00\x00\x00\x00\x00\x00\x00'
p1565
tp1566
bsg29
g5
sg30
I00
sg31
g5
sg32
S'robert.hayes@enron.com'
p1567
sg34
g5
sg35
g5
sg36
I50
sg37
g5
sg38
I12
sg39
g5
sg40
F0.0
sg41
g5
sg42
g5
sg43
I151418
sg44
I16
sg45
g7
(g8
(I0
tp1568
g10
tp1569
Rp1570
(I1
(I1
tp1571
g17
I00
S'\x00\x00\x00\x00\x00\x00\x00\x00'
p1572
tp1573
bsg52
I0
sg53
F0.031746031746031744
sg54
I151418
sg55
g7
(g8
(I0
tp1574
g10
tp1575
Rp1576
(I1
(I1
tp1577
g17
I00
S'|;P`F\xb2\xc2?'
p1578
tp1579
bsg62
g7
(g8
(I0
tp1580
g10
tp1581
Rp1582
(I1
(I1
tp1583
g17
I00
S'\x00\x00\x00\x00\x00\x00\x00\x00'
p1584
tp1585
bsg69
g5
sg70
I7961
sg71
g5
sg72
g7
(g8
(I0
tp1586
g10
tp1587
Rp1588
(I1
(I1
tp1589
g17
I00
S'\x08\x1f|\xf0\xc1\x07\x9f?'
p1590
tp1591
bssS'MCCARTY DANNY J'
p1592
(dp1593
g3
I1433
sg4
g5
sg6
g7
(g8
(I0
tp1594
g10
tp1595
Rp1596
(I1
(I1
tp1597
g17
I00
S'\t*\x1c\xdd2\xe7j?'
p1598
tp1599
bsg22
g7
(g8
(I0
tp1600
g10
tp1601
Rp1602
(I1
(I1
tp1603
g17
I00
S'\x00\x00\x00\x00\x00\x00\x00\x00'
p1604
tp1605
bsg29
g5
sg30
I00
sg31
g5
sg32
S'danny.mccarty@enron.com'
p1606
sg34
g5
sg35
g5
sg36
I508
sg37
g5
sg38
I215
sg39
g5
sg40
F0.009302325581395349
sg41
g5
sg42
g5
sg43
I758931
sg44
I25
sg45
g7
(g8
(I0
tp1607
g10
tp1608
Rp1609
(I1
(I1
tp1610
g17
I00
S'\x90\xd10\x01\x19\r\x83?'
p1611
tp1612
bsg52
I2
sg53
F0.017445917655268667
sg54
I94556
sg55
g7
(g8
(I0
tp1613
g10
tp1614
Rp1615
(I1
(I1
tp1616
g17
I00
S'|\xe4\xf7r\x8f\x8c\xb4?'
p1617
tp1618
bsg62
g7
(g8
(I0
tp1619
g10
tp1620
Rp1621
(I1
(I1
tp1622
g17
I00
S'\x00\x00\x00\x00\x00\x00\x00\x00'
p1623
tp1624
bsg69
g5
sg70
g5
sg71
I664375
sg72
g7
(g8
(I0
tp1625
g10
tp1626
Rp1627
(I1
(I1
tp1628
g17
I00
S'>\xf8\xe0\x83\x0f>\xa8?'
p1629
tp1630
bssS'KOPPER MICHAEL J'
p1631
(dp1632
g3
g5
sg4
g5
sg6
g7
(g8
(I0
tp1633
g10
tp1634
Rp1635
(I1
(I1
tp1636
g17
I00
S'\x00\x00\x00\x00\x00\x00\x00\x00'
p1637
tp1638
bsg22
g7
(g8
(I0
tp1639
g10
tp1640
Rp1641
(I1
(I1
tp1642
g17
I00
S'\xa8\xfb\xa33&\xd6\xc9?'
p1643
tp1644
bsg29
I118134
sg30
I01
sg31
g5
sg32
S'michael.kopper@enron.com'
p1645
sg34
I602671
sg35
g5
sg36
g5
sg37
g5
sg38
g5
sg39
I907502
sg40
g93
sg41
g5
sg42
I800000
sg43
I985032
sg44
g5
sg45
g7
(g8
(I0
tp1646
g10
tp1647
Rp1648
(I1
(I1
tp1649
g17
I00
S'\x00\x00\x00\x00\x00\x00\x00\x00'
p1650
tp1651
bsg52
g5
sg53
g93
sg54
I985032
sg55
g7
(g8
(I0
tp1652
g10
tp1653
Rp1654
(I1
(I1
tp1655
g17
I00
S'\x00\x00\x00\x00\x00\x00\x00\x00'
p1656
tp1657
bsg62
g7
(g8
(I0
tp1658
g10
tp1659
Rp1660
(I1
(I1
tp1661
g17
I00
S'\x99\x99\x99\x99\x99\x99\xb9?'
p1662
tp1663
bsg69
I224305
sg70
I2652612
sg71
g5
sg72
g7
(g8
(I0
tp1664
g10
tp1665
Rp1666
(I1
(I1
tp1667
g17
I00
S'\x00\x00\x00\x00\x00\x00\x00\x00'
p1668
tp1669
bssS'LEFF DANIEL P'
p1670
(dp1671
g3
I2822
sg4
g5
sg6
g7
(g8
(I0
tp1672
g10
tp1673
Rp1674
(I1
(I1
tp1675
g17
I00
S'\xc8\xa4x\x81L\x8a\x97?'
p1676
tp1677
bsg22
g7
(g8
(I0
tp1678
g10
tp1679
Rp1680
(I1
(I1
tp1681
g17
I00
S'\xd2D\xe5\xe9\x07\x88\xcf?'
p1682
tp1683
bsg29
g5
sg30
I00
sg31
g5
sg32
S'dan.leff@enron.com'
p1684
sg34
I1387399
sg35
g5
sg36
I2672
sg37
g5
sg38
I63
sg39
I3083
sg40
F0.2222222222222222
sg41
g5
sg42
I1000000
sg43
I360528
sg44
I67
sg45
g7
(g8
(I0
tp1685
g10
tp1686
Rp1687
(I1
(I1
tp1688
g17
I00
S'\x1c\xc7q\x1c\xc7q\xcc?'
p1689
tp1690
bsg52
I14
sg53
F0.02374202693125443
sg54
I360528
sg55
g7
(g8
(I0
tp1691
g10
tp1692
Rp1693
(I1
(I1
tp1694
g17
I00
S'":fF\x0f\xf7\xbb?'
p1695
tp1696
bsg62
g7
(g8
(I0
tp1697
g10
tp1698
Rp1699
(I1
(I1
tp1700
g17
I00
S'\x00\x00\x00\x00\x00\x00\xc0?'
p1701
tp1702
bsg69
I273746
sg70
I2664228
sg71
g5
sg72
g7
(g8
(I0
tp1703
g10
tp1704
Rp1705
(I1
(I1
tp1706
g17
I00
S'>\xf8\xe0\x83\x0f>\xc0?'
p1707
tp1708
bssS'LAVORATO JOHN J'
p1709
(dp1710
g3
I7259
sg4
g5
sg6
g7
(g8
(I0
tp1711
g10
tp1712
Rp1713
(I1
(I1
tp1714
g17
I00
S'\xbe\x1b~T\x97\x98\xe5?'
p1715
tp1716
bsg22
g7
(g8
(I0
tp1717
g10
tp1718
Rp1719
(I1
(I1
tp1720
g17
I00
S'J\xd7\xc7\x04X\x8a\xd3?'
p1721
tp1722
bsg29
I49537
sg30
I00
sg31
g5
sg32
S'john.lavorato@enron.com'
p1723
sg34
I2035380
sg35
g5
sg36
I3962
sg37
g5
sg38
I2585
sg39
I1552
sg40
F0.15899419729206962
sg41
g5
sg42
I8000000
sg43
I5167144
sg44
I528
sg45
g7
(g8
(I0
tp1724
g10
tp1725
Rp1726
(I1
(I1
tp1727
g17
I00
S'_\xc5\xcf\xfe\xebY\xc4?'
p1728
tp1729
bsg52
I411
sg53
F0.07273729163796666
sg54
I1008149
sg55
g7
(g8
(I0
tp1730
g10
tp1731
Rp1732
(I1
(I1
tp1733
g17
I00
S'OrY27k\xd5?'
p1734
tp1735
bsg62
g7
(g8
(I0
tp1736
g10
tp1737
Rp1738
(I1
(I1
tp1739
g17
I00
S'\x00\x00\x00\x00\x00\x00\xf0?'
p1740
tp1741
bsg69
I339288
sg70
I10425757
sg71
I4158995
sg72
g7
(g8
(I0
tp1742
g10
tp1743
Rp1744
(I1
(I1
tp1745
g17
I00
S'\x00\x00\x00\x00\x00\x00\xf0?'
p1746
tp1747
bssS'BERBERIAN DAVID'
p1748
(dp1749
g3
g5
sg4
g5
sg6
g7
(g8
(I0
tp1750
g10
tp1751
Rp1752
(I1
(I1
tp1753
g17
I00
S'\x00\x00\x00\x00\x00\x00\x00\x00'
p1754
tp1755
bsg22
g7
(g8
(I0
tp1756
g10
tp1757
Rp1758
(I1
(I1
tp1759
g17
I00
S'\x0b\xa3\x126k\xf2\xc8?'
p1760
tp1761
bsg29
I11892
sg30
I00
sg31
g5
sg32
S'david.berberian@enron.com'
p1762
sg34
g5
sg35
g5
sg36
g5
sg37
g5
sg38
g5
sg39
g5
sg40
g93
sg41
g5
sg42
g5
sg43
I2493616
sg44
g5
sg45
g7
(g8
(I0
tp1763
g10
tp1764
Rp1765
(I1
(I1
tp1766
g17
I00
S'\x00\x00\x00\x00\x00\x00\x00\x00'
p1767
tp1768
bsg52
g5
sg53
g93
sg54
I869220
sg55
g7
(g8
(I0
tp1769
g10
tp1770
Rp1771
(I1
(I1
tp1772
g17
I00
S'\x00\x00\x00\x00\x00\x00\x00\x00'
p1773
tp1774
bsg62
g7
(g8
(I0
tp1775
g10
tp1776
Rp1777
(I1
(I1
tp1778
g17
I00
S'\x00\x00\x00\x00\x00\x00\x00\x00'
p1779
tp1780
bsg69
I216582
sg70
I228474
sg71
I1624396
sg72
g7
(g8
(I0
tp1781
g10
tp1782
Rp1783
(I1
(I1
tp1784
g17
I00
S'\x00\x00\x00\x00\x00\x00\x00\x00'
p1785
tp1786
bssS'DETMERING TIMOTHY J'
p1787
(dp1788
g3
g5
sg4
I875307
sg6
g7
(g8
(I0
tp1789
g10
tp1790
Rp1791
(I1
(I1
tp1792
g17
I00
S'\x00\x00\x00\x00\x00\x00\x00\x00'
p1793
tp1794
bsg22
g7
(g8
(I0
tp1795
g10
tp1796
Rp1797
(I1
(I1
tp1798
g17
I00
S'\x9bI\xdf\xb7\x13?\xc8?'
p1799
tp1800
bsg29
I52255
sg30
I00
sg31
I-775241
sg32
S'timothy.detmering@enron.com'
p1801
sg34
I415657
sg35
I-315068
sg36
g5
sg37
g5
sg38
g5
sg39
I1105
sg40
g93
sg41
g5
sg42
I425000
sg43
I2027865
sg44
g5
sg45
g7
(g8
(I0
tp1802
g10
tp1803
Rp1804
(I1
(I1
tp1805
g17
I00
S'\x00\x00\x00\x00\x00\x00\x00\x00'
p1806
tp1807
bsg52
g5
sg53
g93
sg54
I315068
sg55
g7
(g8
(I0
tp1808
g10
tp1809
Rp1810
(I1
(I1
tp1811
g17
I00
S'\x00\x00\x00\x00\x00\x00\x00\x00'
p1812
tp1813
bsg62
g7
(g8
(I0
tp1814
g10
tp1815
Rp1816
(I1
(I1
tp1817
g17
I00
S'333333\xab?'
p1818
tp1819
bsg69
I210500
sg70
I1204583
sg71
I2027865
sg72
g7
(g8
(I0
tp1820
g10
tp1821
Rp1822
(I1
(I1
tp1823
g17
I00
S'\x00\x00\x00\x00\x00\x00\x00\x00'
p1824
tp1825
bssS'WAKEHAM JOHN'
p1826
(dp1827
g3
g5
sg4
g5
sg6
g7
(g8
(I0
tp1828
g10
tp1829
Rp1830
(I1
(I1
tp1831
g17
I00
S'\x00\x00\x00\x00\x00\x00\x00\x00'
p1832
tp1833
bsg22
g7
(g8
(I0
tp1834
g10
tp1835
Rp1836
(I1
(I1
tp1837
g17
I00
S'\x00\x00\x00\x00\x00\x00\x00\x00'
p1838
tp1839
bsg29
I103773
sg30
I00
sg31
g5
sg32
g5
sg34
g5
sg35
g5
sg36
g5
sg37
g5
sg38
g5
sg39
g5
sg40
g93
sg41
I109298
sg42
g5
sg43
g5
sg44
g5
sg45
g7
(g8
(I0
tp1840
g10
tp1841
Rp1842
(I1
(I1
tp1843
g17
I00
S'\x00\x00\x00\x00\x00\x00\x00\x00'
p1844
tp1845
bsg52
g5
sg53
g93
sg54
g5
sg55
g7
(g8
(I0
tp1846
g10
tp1847
Rp1848
(I1
(I1
tp1849
g17
I00
S'\x00\x00\x00\x00\x00\x00\x00\x00'
p1850
tp1851
bsg62
g7
(g8
(I0
tp1852
g10
tp1853
Rp1854
(I1
(I1
tp1855
g17
I00
S'\x00\x00\x00\x00\x00\x00\x00\x00'
p1856
tp1857
bsg69
g5
sg70
I213071
sg71
g5
sg72
g7
(g8
(I0
tp1858
g10
tp1859
Rp1860
(I1
(I1
tp1861
g17
I00
S'\x00\x00\x00\x00\x00\x00\x00\x00'
p1862
tp1863
bssS'POWERS WILLIAM'
p1864
(dp1865
g3
I653
sg4
g5
sg6
g7
(g8
(I0
tp1866
g10
tp1867
Rp1868
(I1
(I1
tp1869
g17
I00
S'\x00\x00\x00\x00\x00\x00\x00\x00'
p1870
tp1871
bsg22
g7
(g8
(I0
tp1872
g10
tp1873
Rp1874
(I1
(I1
tp1875
g17
I00
S'\x00\x00\x00\x00\x00\x00\x00\x00'
p1876
tp1877
bsg29
g5
sg30
I00
sg31
I-17500
sg32
S'ken.powers@enron.com'
p1878
sg34
g5
sg35
g5
sg36
I12
sg37
g5
sg38
I26
sg39
g5
sg40
F0.0
sg41
I17500
sg42
g5
sg43
g5
sg44
I0
sg45
g7
(g8
(I0
tp1879
g10
tp1880
Rp1881
(I1
(I1
tp1882
g17
I00
S'\x00\x00\x00\x00\x00\x00\x00\x00'
p1883
tp1884
bsg52
I0
sg53
F0.0
sg54
g5
sg55
g7
(g8
(I0
tp1885
g10
tp1886
Rp1887
(I1
(I1
tp1888
g17
I00
S'\x00\x00\x00\x00\x00\x00\x00\x00'
p1889
tp1890
bsg62
g7
(g8
(I0
tp1891
g10
tp1892
Rp1893
(I1
(I1
tp1894
g17
I00
S'\x00\x00\x00\x00\x00\x00\x00\x00'
p1895
tp1896
bsg69
g5
sg70
g5
sg71
g5
sg72
g7
(g8
(I0
tp1897
g10
tp1898
Rp1899
(I1
(I1
tp1900
g17
I00
S'\x00\x00\x00\x00\x00\x00\x00\x00'
p1901
tp1902
bssS'GOLD JOSEPH'
p1903
(dp1904
g3
g5
sg4
g5
sg6
g7
(g8
(I0
tp1905
g10
tp1906
Rp1907
(I1
(I1
tp1908
g17
I00
S'\x00\x00\x00\x00\x00\x00\x00\x00'
p1909
tp1910
bsg22
g7
(g8
(I0
tp1911
g10
tp1912
Rp1913
(I1
(I1
tp1914
g17
I00
S'psa\xb2~n\xcf?'
p1915
tp1916
bsg29
g5
sg30
I00
sg31
g5
sg32
S'joe.gold@enron.com'
p1917
sg34
I304805
sg35
g5
sg36
g5
sg37
g5
sg38
g5
sg39
I819288
sg40
g93
sg41
g5
sg42
I750000
sg43
I877611
sg44
g5
sg45
g7
(g8
(I0
tp1918
g10
tp1919
Rp1920
(I1
(I1
tp1921
g17
I00
S'\x00\x00\x00\x00\x00\x00\x00\x00'
p1922
tp1923
bsg52
g5
sg53
g93
sg54
I441096
sg55
g7
(g8
(I0
tp1924
g10
tp1925
Rp1926
(I1
(I1
tp1927
g17
I00
S'\x00\x00\x00\x00\x00\x00\x00\x00'
p1928
tp1929
bsg62
g7
(g8
(I0
tp1930
g10
tp1931
Rp1932
(I1
(I1
tp1933
g17
I00
S'\x00\x00\x00\x00\x00\x00\xb8?'
p1934
tp1935
bsg69
I272880
sg70
I2146973
sg71
I436515
sg72
g7
(g8
(I0
tp1936
g10
tp1937
Rp1938
(I1
(I1
tp1939
g17
I00
S'\x00\x00\x00\x00\x00\x00\x00\x00'
p1940
tp1941
bssS'BANNANTINE JAMES M'
p1942
(dp1943
g3
I566
sg4
g5
sg6
g7
(g8
(I0
tp1944
g10
tp1945
Rp1946
(I1
(I1
tp1947
g17
I00
S'\x00\x00\x00\x00\x00\x00\x00\x00'
p1948
tp1949
bsg22
g7
(g8
(I0
tp1950
g10
tp1951
Rp1952
(I1
(I1
tp1953
g17
I00
S'S\xa0\xf6\xbc\x81!<?'
p1954
tp1955
bsg29
I56301
sg30
I00
sg31
I-5104
sg32
S'james.bannantine@enron.com'
p1956
sg34
g5
sg35
I-560222
sg36
I465
sg37
g5
sg38
I29
sg39
I864523
sg40
F0.0
sg41
g5
sg42
g5
sg43
I5243487
sg44
I39
sg45
g7
(g8
(I0
tp1957
g10
tp1958
Rp1959
(I1
(I1
tp1960
g17
I00
S'\x00\x00\x00\x00\x00\x00\x00\x00'
p1961
tp1962
bsg52
I0
sg53
F0.06890459363957598
sg54
I1757552
sg55
g7
(g8
(I0
tp1963
g10
tp1964
Rp1965
(I1
(I1
tp1966
g17
I00
S'm\xff\xe5\xcaJJ\xd4?'
p1967
tp1968
bsg62
g7
(g8
(I0
tp1969
g10
tp1970
Rp1971
(I1
(I1
tp1972
g17
I00
S'\x00\x00\x00\x00\x00\x00\x00\x00'
p1973
tp1974
bsg69
I477
sg70
I916197
sg71
I4046157
sg72
g7
(g8
(I0
tp1975
g10
tp1976
Rp1977
(I1
(I1
tp1978
g17
I00
S'\xe9\xa2\x8b.\xba\xe8\xb2?'
p1979
tp1980
bssS'DUNCAN JOHN H'
p1981
(dp1982
g3
g5
sg4
g5
sg6
g7
(g8
(I0
tp1983
g10
tp1984
Rp1985
(I1
(I1
tp1986
g17
I00
S'\x00\x00\x00\x00\x00\x00\x00\x00'
p1987
tp1988
bsg22
g7
(g8
(I0
tp1989
g10
tp1990
Rp1991
(I1
(I1
tp1992
g17
I00
S'\x00\x00\x00\x00\x00\x00\x00\x00'
p1993
tp1994
bsg29
g5
sg30
I00
sg31
I-25000
sg32
g5
sg34
g5
sg35
g5
sg36
g5
sg37
g5
sg38
g5
sg39
g5
sg40
g93
sg41
I102492
sg42
g5
sg43
I371750
sg44
g5
sg45
g7
(g8
(I0
tp1995
g10
tp1996
Rp1997
(I1
(I1
tp1998
g17
I00
S'\x00\x00\x00\x00\x00\x00\x00\x00'
p1999
tp2000
bsg52
g5
sg53
g93
sg54
g5
sg55
g7
(g8
(I0
tp2001
g10
tp2002
Rp2003
(I1
(I1
tp2004
g17
I00
S'\x00\x00\x00\x00\x00\x00\x00\x00'
p2005
tp2006
bsg62
g7
(g8
(I0
tp2007
g10
tp2008
Rp2009
(I1
(I1
tp2010
g17
I00
S'\x00\x00\x00\x00\x00\x00\x00\x00'
p2011
tp2012
bsg69
g5
sg70
I77492
sg71
I371750
sg72
g7
(g8
(I0
tp2013
g10
tp2014
Rp2015
(I1
(I1
tp2016
g17
I00
S'\x00\x00\x00\x00\x00\x00\x00\x00'
p2017
tp2018
bssS'SHAPIRO RICHARD S'
p2019
(dp2020
g3
I15149
sg4
g5
sg6
g7
(g8
(I0
tp2021
g10
tp2022
Rp2023
(I1
(I1
tp2024
g17
I00
S'\xb1\x9a\x90\xa8\xcfR\xbb?'
p2025
tp2026
bsg22
g7
(g8
(I0
tp2027
g10
tp2028
Rp2029
(I1
(I1
tp2030
g17
I00
S'_\x92/AS\xfe\xce?'
p2031
tp2032
bsg29
I137767
sg30
I00
sg31
g5
sg32
S'richard.shapiro@enron.com'
p2033
sg34
g5
sg35
g5
sg36
I4527
sg37
g5
sg38
I1215
sg39
I705
sg40
F0.053497942386831275
sg41
g5
sg42
I650000
sg43
I987001
sg44
I74
sg45
g7
(g8
(I0
tp2034
g10
tp2035
Rp2036
(I1
(I1
tp2037
g17
I00
S'\xb3\xd2\xe8\x11\x15d\xab?'
p2038
tp2039
bsg52
I65
sg53
F0.0048848108786058485
sg54
I379164
sg55
g7
(g8
(I0
tp2040
g10
tp2041
Rp2042
(I1
(I1
tp2043
g17
I00
S'3#\xb2\xa3\xc5\x03\x97?'
p2044
tp2045
bsg62
g7
(g8
(I0
tp2046
g10
tp2047
Rp2048
(I1
(I1
tp2049
g17
I00
S'\xcd\xcc\xcc\xcc\xcc\xcc\xb4?'
p2050
tp2051
bsg69
I269076
sg70
I1057548
sg71
I607837
sg72
g7
(g8
(I0
tp2052
g10
tp2053
Rp2054
(I1
(I1
tp2055
g17
I00
S'\xf1\xc1\x07\x1f|\xf0\xc1?'
p2056
tp2057
bssS'SHERRIFF JOHN R'
p2058
(dp2059
g3
I3187
sg4
g5
sg6
g7
(g8
(I0
tp2060
g10
tp2061
Rp2062
(I1
(I1
tp2063
g17
I00
S'6>\xec\x8e,V\xa3?'
p2064
tp2065
bsg22
g7
(g8
(I0
tp2066
g10
tp2067
Rp2068
(I1
(I1
tp2069
g17
I00
S'V\xa6TZ\xc8\xb1\xd8?'
p2070
tp2071
bsg29
g5
sg30
I00
sg31
g5
sg32
S'john.sherriff@enron.com'
p2072
sg34
I554422
sg35
g5
sg36
I2103
sg37
g5
sg38
I92
sg39
I1852186
sg40
F0.25
sg41
g5
sg42
I1500000
sg43
I3128982
sg44
I28
sg45
g7
(g8
(I0
tp2073
g10
tp2074
Rp2075
(I1
(I1
tp2076
g17
I00
S'\x00\x00\x00\x00\x00\x00\xd0?'
p2077
tp2078
bsg52
I23
sg53
F0.008785691873235017
sg54
I1293424
sg55
g7
(g8
(I0
tp2079
g10
tp2080
Rp2081
(I1
(I1
tp2082
g17
I00
S'r\x19\xed\x8ed\xb2\xa4?'
p2083
tp2084
bsg62
g7
(g8
(I0
tp2085
g10
tp2086
Rp2087
(I1
(I1
tp2088
g17
I00
S'\x00\x00\x00\x00\x00\x00\xc8?'
p2089
tp2090
bsg69
I428780
sg70
I4335388
sg71
I1835558
sg72
g7
(g8
(I0
tp2091
g10
tp2092
Rp2093
(I1
(I1
tp2094
g17
I00
S"'\x9bl\xb2\xc9&\xab?"
p2095
tp2096
bssS'SHELBY REX'
p2097
(dp2098
g3
I225
sg4
g5
sg6
g7
(g8
(I0
tp2099
g10
tp2100
Rp2101
(I1
(I1
tp2102
g17
I00
S'\xc8\xa4x\x81L\x8a\x97?'
p2103
tp2104
bsg22
g7
(g8
(I0
tp2105
g10
tp2106
Rp2107
(I1
(I1
tp2108
g17
I00
S'\x17k\xbc<\xb5f\xc8?'
p2109
tp2110
bsg29
I22884
sg30
I01
sg31
I-4167
sg32
S'rex.shelby@enron.com'
p2111
sg34
g5
sg35
g5
sg36
I91
sg37
g5
sg38
I39
sg39
I1573324
sg40
F0.358974358974359
sg41
g5
sg42
I200000
sg43
I2493616
sg44
I13
sg45
g7
(g8
(I0
tp2112
g10
tp2113
Rp2114
(I1
(I1
tp2115
g17
I00
S'\x97o\xf9\x96o\xf9\xd6?'
p2116
tp2117
bsg52
I14
sg53
F0.057777777777777775
sg54
I869220
sg55
g7
(g8
(I0
tp2118
g10
tp2119
Rp2120
(I1
(I1
tp2121
g17
I00
S'\r\x884\x9a\x82\x03\xd1?'
p2122
tp2123
bsg62
g7
(g8
(I0
tp2124
g10
tp2125
Rp2126
(I1
(I1
tp2127
g17
I00
S'\x99\x99\x99\x99\x99\x99\x99?'
p2128
tp2129
bsg69
I211844
sg70
I2003885
sg71
I1624396
sg72
g7
(g8
(I0
tp2130
g10
tp2131
Rp2132
(I1
(I1
tp2133
g17
I00
S'6\xd9d\x93M6\x99?'
p2134
tp2135
bssS'LEMAISTRE CHARLES'
p2136
(dp2137
g3
g5
sg4
g5
sg6
g7
(g8
(I0
tp2138
g10
tp2139
Rp2140
(I1
(I1
tp2141
g17
I00
S'\x00\x00\x00\x00\x00\x00\x00\x00'
p2142
tp2143
bsg22
g7
(g8
(I0
tp2144
g10
tp2145
Rp2146
(I1
(I1
tp2147
g17
I00
S'\x00\x00\x00\x00\x00\x00\x00\x00'
p2148
tp2149
bsg29
g5
sg30
I00
sg31
I-25000
sg32
g5
sg34
g5
sg35
g5
sg36
g5
sg37
g5
sg38
g5
sg39
g5
sg40
g93
sg41
I112492
sg42
g5
sg43
I412878
sg44
g5
sg45
g7
(g8
(I0
tp2150
g10
tp2151
Rp2152
(I1
(I1
tp2153
g17
I00
S'\x00\x00\x00\x00\x00\x00\x00\x00'
p2154
tp2155
bsg52
g5
sg53
g93
sg54
g5
sg55
g7
(g8
(I0
tp2156
g10
tp2157
Rp2158
(I1
(I1
tp2159
g17
I00
S'\x00\x00\x00\x00\x00\x00\x00\x00'
p2160
tp2161
bsg62
g7
(g8
(I0
tp2162
g10
tp2163
Rp2164
(I1
(I1
tp2165
g17
I00
S'\x00\x00\x00\x00\x00\x00\x00\x00'
p2166
tp2167
bsg69
g5
sg70
I87492
sg71
I412878
sg72
g7
(g8
(I0
tp2168
g10
tp2169
Rp2170
(I1
(I1
tp2171
g17
I00
S'\x00\x00\x00\x00\x00\x00\x00\x00'
p2172
tp2173
bssS'DEFFNER JOSEPH M'
p2174
(dp2175
g3
I714
sg4
g5
sg6
g7
(g8
(I0
tp2176
g10
tp2177
Rp2178
(I1
(I1
tp2179
g17
I00
S'\t*\x1c\xdd2\xe7z?'
p2180
tp2181
bsg22
g7
(g8
(I0
tp2182
g10
tp2183
Rp2184
(I1
(I1
tp2185
g17
I00
S'\x1fx\xc9\xbe\xf3\xbd\xc7?'
p2186
tp2187
bsg29
I41626
sg30
I00
sg31
g5
sg32
S'joseph.deffner@enron.com'
p2188
sg34
I335349
sg35
g5
sg36
I552
sg37
g5
sg38
I74
sg39
I25553
sg40
F0.05405405405405406
sg41
g5
sg42
I600000
sg43
I159211
sg44
I115
sg45
g7
(g8
(I0
tp2189
g10
tp2190
Rp2191
(I1
(I1
tp2192
g17
I00
S'\xd0\xba\xc1\x14\xf9\xac\xab?'
p2193
tp2194
bsg52
I4
sg53
F0.16106442577030813
sg54
I141833
sg55
g7
(g8
(I0
tp2195
g10
tp2196
Rp2197
(I1
(I1
tp2198
g17
I00
S'sK\xed\x9d\xd3\xb6\xe7?'
p2199
tp2200
bsg62
g7
(g8
(I0
tp2201
g10
tp2202
Rp2203
(I1
(I1
tp2204
g17
I00
S'333333\xb3?'
p2205
tp2206
bsg69
I206121
sg70
I1208649
sg71
I17378
sg72
g7
(g8
(I0
tp2207
g10
tp2208
Rp2209
(I1
(I1
tp2210
g17
I00
S'\xe1\x83\x0f>\xf8\xe0\xcb?'
p2211
tp2212
bssS'KISHKILL JOSEPH G'
p2213
(dp2214
g3
g5
sg4
g5
sg6
g7
(g8
(I0
tp2215
g10
tp2216
Rp2217
(I1
(I1
tp2218
g17
I00
S'\x00\x00\x00\x00\x00\x00\x00\x00'
p2219
tp2220
bsg22
g7
(g8
(I0
tp2221
g10
tp2222
Rp2223
(I1
(I1
tp2224
g17
I00
S'<\x04\xdd\\\x0b\x12\xc4?'
p2225
tp2226
bsg29
I116335
sg30
I00
sg31
I-51042
sg32
S'joe.kishkill@enron.com'
p2227
sg34
g5
sg35
g5
sg36
g5
sg37
g5
sg38
g5
sg39
I465357
sg40
g93
sg41
g5
sg42
g5
sg43
I1034346
sg44
g5
sg45
g7
(g8
(I0
tp2228
g10
tp2229
Rp2230
(I1
(I1
tp2231
g17
I00
S'\x00\x00\x00\x00\x00\x00\x00\x00'
p2232
tp2233
bsg52
g5
sg53
g93
sg54
I1034346
sg55
g7
(g8
(I0
tp2234
g10
tp2235
Rp2236
(I1
(I1
tp2237
g17
I00
S'\x00\x00\x00\x00\x00\x00\x00\x00'
p2238
tp2239
bsg62
g7
(g8
(I0
tp2240
g10
tp2241
Rp2242
(I1
(I1
tp2243
g17
I00
S'\x00\x00\x00\x00\x00\x00\x00\x00'
p2244
tp2245
bsg69
I174246
sg70
I704896
sg71
g5
sg72
g7
(g8
(I0
tp2246
g10
tp2247
Rp2248
(I1
(I1
tp2249
g17
I00
S'\x00\x00\x00\x00\x00\x00\x00\x00'
p2250
tp2251
bssS'WHALLEY LAWRENCE G'
p2252
(dp2253
g3
I6019
sg4
g5
sg6
g7
(g8
(I0
tp2254
g10
tp2255
Rp2256
(I1
(I1
tp2257
g17
I00
S'\x87\x1f\xd5%f-\xa4?'
p2258
tp2259
bsg22
g7
(g8
(I0
tp2260
g10
tp2261
Rp2262
(I1
(I1
tp2263
g17
I00
S'L\xe6\xb6\xee\xa0d\xdd?'
p2264
tp2265
bsg29
I57838
sg30
I00
sg31
g5
sg32
S'greg.whalley@enron.com'
p2266
sg34
I808346
sg35
g5
sg36
I3920
sg37
g5
sg38
I556
sg39
I301026
sg40
F0.04316546762589928
sg41
g5
sg42
I3000000
sg43
I6079137
sg44
I186
sg45
g7
(g8
(I0
tp2267
g10
tp2268
Rp2269
(I1
(I1
tp2270
g17
I00
S"'!\x8a\xbf\xc8\x19\xa6?"
p2271
tp2272
bsg52
I24
sg53
F0.03090214321315833
sg54
I2796177
sg55
g7
(g8
(I0
tp2273
g10
tp2274
Rp2275
(I1
(I1
tp2276
g17
I00
S'l\xab\x017\x0b3\xc2?'
p2277
tp2278
bsg62
g7
(g8
(I0
tp2279
g10
tp2280
Rp2281
(I1
(I1
tp2282
g17
I00
S'\x00\x00\x00\x00\x00\x00\xd8?'
p2283
tp2284
bsg69
I510364
sg70
I4677574
sg71
I3282960
sg72
g7
(g8
(I0
tp2285
g10
tp2286
Rp2287
(I1
(I1
tp2288
g17
I00
S'\x8c.\xba\xe8\xa2\x8b\xd6?'
p2289
tp2290
bssS'MCCONNELL MICHAEL S'
p2291
(dp2292
g3
I3329
sg4
g5
sg6
g7
(g8
(I0
tp2293
g10
tp2294
Rp2295
(I1
(I1
tp2296
g17
I00
S'\xdbW\x8f\x8b4c\xd4?'
p2297
tp2298
bsg22
g7
(g8
(I0
tp2299
g10
tp2300
Rp2301
(I1
(I1
tp2302
g17
I00
S'\x99\x85S*\xfe\x05\xd5?'
p2303
tp2304
bsg29
I81364
sg30
I00
sg31
g5
sg32
S'mike.mcconnell@enron.com'
p2305
sg34
I554422
sg35
g5
sg36
I2189
sg37
g5
sg38
I2742
sg39
I540
sg40
F0.07075127644055434
sg41
g5
sg42
I1100000
sg43
I3101279
sg44
I92
sg45
g7
(g8
(I0
tp2306
g10
tp2307
Rp2308
(I1
(I1
tp2309
g17
I00
S'8bvr\xc1\x1c\xb2?'
p2310
tp2311
bsg52
I194
sg53
F0.02763592670471613
sg54
I1478269
sg55
g7
(g8
(I0
tp2312
g10
tp2313
Rp2314
(I1
(I1
tp2315
g17
I00
S'\xc6R\r\x9f\x9aF\xc0?'
p2316
tp2317
bsg62
g7
(g8
(I0
tp2318
g10
tp2319
Rp2320
(I1
(I1
tp2321
g17
I00
S'\x99\x99\x99\x99\x99\x99\xc1?'
p2322
tp2323
bsg69
I365038
sg70
I2101364
sg71
I1623010
sg72
g7
(g8
(I0
tp2324
g10
tp2325
Rp2326
(I1
(I1
tp2327
g17
I00
S'N6\xd9d\x93M\xc6?'
p2328
tp2329
bssS'PIRO JIM'
p2330
(dp2331
g3
I58
sg4
g5
sg6
g7
(g8
(I0
tp2332
g10
tp2333
Rp2334
(I1
(I1
tp2335
g17
I00
S'\t*\x1c\xdd2\xe7Z?'
p2336
tp2337
bsg22
g7
(g8
(I0
tp2338
g10
tp2339
Rp2340
(I1
(I1
tp2341
g17
I00
S'\x00\x00\x00\x00\x00\x00\x00\x00'
p2342
tp2343
bsg29
g5
sg30
I00
sg31
g5
sg32
S'jim.piro@enron.com'
p2344
sg34
g5
sg35
g5
sg36
I3
sg37
g5
sg38
I16
sg39
g5
sg40
F0.0625
sg41
g5
sg42
g5
sg43
I47304
sg44
I0
sg45
g7
(g8
(I0
tp2345
g10
tp2346
Rp2347
(I1
(I1
tp2348
g17
I00
S'\x00\x00\x00\x00\x00\x00\xb0?'
p2349
tp2350
bsg52
I1
sg53
F0.0
sg54
I47304
sg55
g7
(g8
(I0
tp2351
g10
tp2352
Rp2353
(I1
(I1
tp2354
g17
I00
S'\x00\x00\x00\x00\x00\x00\x00\x00'
p2355
tp2356
bsg62
g7
(g8
(I0
tp2357
g10
tp2358
Rp2359
(I1
(I1
tp2360
g17
I00
S'\x00\x00\x00\x00\x00\x00\x00\x00'
p2361
tp2362
bsg69
g5
sg70
g5
sg71
g5
sg72
g7
(g8
(I0
tp2363
g10
tp2364
Rp2365
(I1
(I1
tp2366
g17
I00
S'\x00\x00\x00\x00\x00\x00\x00\x00'
p2367
tp2368
bssS'DELAINEY DAVID W'
p2369
(dp2370
g3
I3093
sg4
g5
sg6
g7
(g8
(I0
tp2371
g10
tp2372
Rp2373
(I1
(I1
tp2374
g17
I00
S'\x00\x00\x00\x00\x00\x00\xf0?'
p2375
tp2376
bsg22
g7
(g8
(I0
tp2377
g10
tp2378
Rp2379
(I1
(I1
tp2380
g17
I00
S'\xc6xP\xf6\xd5\x07\xd5?'
p2381
tp2382
bsg29
I86174
sg30
I01
sg31
g5
sg32
S'david.delainey@enron.com'
p2383
sg34
I1294981
sg35
g5
sg36
I2097
sg37
g5
sg38
I3069
sg39
I1661
sg40
F0.198435972629521
sg41
g5
sg42
I3000000
sg43
I3614261
sg44
I66
sg45
g7
(g8
(I0
tp2384
g10
tp2385
Rp2386
(I1
(I1
tp2387
g17
I00
S'f\x99e\x96Yf\xc9?'
p2388
tp2389
bsg52
I609
sg53
F0.02133850630455868
sg54
I1323148
sg55
g7
(g8
(I0
tp2390
g10
tp2391
Rp2392
(I1
(I1
tp2393
g17
I00
S'\xc8\xd8\xff4P"\xb9?'
p2394
tp2395
bsg62
g7
(g8
(I0
tp2396
g10
tp2397
Rp2398
(I1
(I1
tp2399
g17
I00
S'\x00\x00\x00\x00\x00\x00\xd8?'
p2400
tp2401
bsg69
I365163
sg70
I4747979
sg71
I2291113
sg72
g7
(g8
(I0
tp2402
g10
tp2403
Rp2404
(I1
(I1
tp2405
g17
I00
S'\x00\x00\x00\x00\x00\x00\xc0?'
p2406
tp2407
bssS'SULLIVAN-SHAKLOVITZ COLLEEN'
p2408
(dp2409
g3
g5
sg4
I181993
sg6
g7
(g8
(I0
tp2410
g10
tp2411
Rp2412
(I1
(I1
tp2413
g17
I00
S'\x00\x00\x00\x00\x00\x00\x00\x00'
p2414
tp2415
bsg22
g7
(g8
(I0
tp2416
g10
tp2417
Rp2418
(I1
(I1
tp2419
g17
I00
S'\xc5\xa9\xe3\xda\xe9\xbf\xc2?'
p2420
tp2421
bsg29
g5
sg30
I00
sg31
g5
sg32
g5
sg34
I554422
sg35
g5
sg36
g5
sg37
g5
sg38
g5
sg39
I162
sg40
g93
sg41
g5
sg42
I100000
sg43
I1362375
sg44
g5
sg45
g7
(g8
(I0
tp2422
g10
tp2423
Rp2424
(I1
(I1
tp2425
g17
I00
S'\x00\x00\x00\x00\x00\x00\x00\x00'
p2426
tp2427
bsg52
g5
sg53
g93
sg54
g5
sg55
g7
(g8
(I0
tp2428
g10
tp2429
Rp2430
(I1
(I1
tp2431
g17
I00
S'\x00\x00\x00\x00\x00\x00\x00\x00'
p2432
tp2433
bsg62
g7
(g8
(I0
tp2434
g10
tp2435
Rp2436
(I1
(I1
tp2437
g17
I00
S'\x99\x99\x99\x99\x99\x99\x89?'
p2438
tp2439
bsg69
I162779
sg70
I999356
sg71
I1362375
sg72
g7
(g8
(I0
tp2440
g10
tp2441
Rp2442
(I1
(I1
tp2443
g17
I00
S'\x00\x00\x00\x00\x00\x00\x00\x00'
p2444
tp2445
bssS'WROBEL BRUCE'
p2446
(dp2447
g3
g5
sg4
g5
sg6
g7
(g8
(I0
tp2448
g10
tp2449
Rp2450
(I1
(I1
tp2451
g17
I00
S'\x00\x00\x00\x00\x00\x00\x00\x00'
p2452
tp2453
bsg22
g7
(g8
(I0
tp2454
g10
tp2455
Rp2456
(I1
(I1
tp2457
g17
I00
S'\x00\x00\x00\x00\x00\x00\x00\x00'
p2458
tp2459
bsg29
g5
sg30
I00
sg31
g5
sg32
g5
sg34
g5
sg35
g5
sg36
g5
sg37
g5
sg38
g5
sg39
g5
sg40
g93
sg41
g5
sg42
g5
sg43
I139130
sg44
g5
sg45
g7
(g8
(I0
tp2460
g10
tp2461
Rp2462
(I1
(I1
tp2463
g17
I00
S'\x00\x00\x00\x00\x00\x00\x00\x00'
p2464
tp2465
bsg52
g5
sg53
g93
sg54
g5
sg55
g7
(g8
(I0
tp2466
g10
tp2467
Rp2468
(I1
(I1
tp2469
g17
I00
S'\x00\x00\x00\x00\x00\x00\x00\x00'
p2470
tp2471
bsg62
g7
(g8
(I0
tp2472
g10
tp2473
Rp2474
(I1
(I1
tp2475
g17
I00
S'\x00\x00\x00\x00\x00\x00\x00\x00'
p2476
tp2477
bsg69
g5
sg70
g5
sg71
I139130
sg72
g7
(g8
(I0
tp2478
g10
tp2479
Rp2480
(I1
(I1
tp2481
g17
I00
S'\x00\x00\x00\x00\x00\x00\x00\x00'
p2482
tp2483
bssS'LINDHOLM TOD A'
p2484
(dp2485
g3
g5
sg4
I204075
sg6
g7
(g8
(I0
tp2486
g10
tp2487
Rp2488
(I1
(I1
tp2489
g17
I00
S'\x00\x00\x00\x00\x00\x00\x00\x00'
p2490
tp2491
bsg22
g7
(g8
(I0
tp2492
g10
tp2493
Rp2494
(I1
(I1
tp2495
g17
I00
S'\x18\xb5H\x9az<\xcb?'
p2496
tp2497
bsg29
I57727
sg30
I00
sg31
g5
sg32
S'tod.lindholm@enron.com'
p2498
sg34
I175000
sg35
g5
sg36
g5
sg37
g5
sg38
g5
sg39
I2630
sg40
g93
sg41
g5
sg42
I200000
sg43
I3064208
sg44
g5
sg45
g7
(g8
(I0
tp2499
g10
tp2500
Rp2501
(I1
(I1
tp2502
g17
I00
S'\x00\x00\x00\x00\x00\x00\x00\x00'
p2503
tp2504
bsg52
g5
sg53
g93
sg54
I514847
sg55
g7
(g8
(I0
tp2505
g10
tp2506
Rp2507
(I1
(I1
tp2508
g17
I00
S'\x00\x00\x00\x00\x00\x00\x00\x00'
p2509
tp2510
bsg62
g7
(g8
(I0
tp2511
g10
tp2512
Rp2513
(I1
(I1
tp2514
g17
I00
S'\x99\x99\x99\x99\x99\x99\x99?'
p2515
tp2516
bsg69
I236457
sg70
I875889
sg71
I2549361
sg72
g7
(g8
(I0
tp2517
g10
tp2518
Rp2519
(I1
(I1
tp2520
g17
I00
S'\x00\x00\x00\x00\x00\x00\x00\x00'
p2521
tp2522
bssS'MEYER JEROME J'
p2523
(dp2524
g3
g5
sg4
g5
sg6
g7
(g8
(I0
tp2525
g10
tp2526
Rp2527
(I1
(I1
tp2528
g17
I00
S'\x00\x00\x00\x00\x00\x00\x00\x00'
p2529
tp2530
bsg22
g7
(g8
(I0
tp2531
g10
tp2532
Rp2533
(I1
(I1
tp2534
g17
I00
S'\x00\x00\x00\x00\x00\x00\x00\x00'
p2535
tp2536
bsg29
I2151
sg30
I00
sg31
I-38346
sg32
g5
sg34
g5
sg35
g5
sg36
g5
sg37
g5
sg38
g5
sg39
g5
sg40
g93
sg41
I38346
sg42
g5
sg43
g5
sg44
g5
sg45
g7
(g8
(I0
tp2537
g10
tp2538
Rp2539
(I1
(I1
tp2540
g17
I00
S'\x00\x00\x00\x00\x00\x00\x00\x00'
p2541
tp2542
bsg52
g5
sg53
g93
sg54
g5
sg55
g7
(g8
(I0
tp2543
g10
tp2544
Rp2545
(I1
(I1
tp2546
g17
I00
S'\x00\x00\x00\x00\x00\x00\x00\x00'
p2547
tp2548
bsg62
g7
(g8
(I0
tp2549
g10
tp2550
Rp2551
(I1
(I1
tp2552
g17
I00
S'\x00\x00\x00\x00\x00\x00\x00\x00'
p2553
tp2554
bsg69
g5
sg70
I2151
sg71
g5
sg72
g7
(g8
(I0
tp2555
g10
tp2556
Rp2557
(I1
(I1
tp2558
g17
I00
S'\x00\x00\x00\x00\x00\x00\x00\x00'
p2559
tp2560
bssS'LAY KENNETH L'
p2561
(dp2562
g3
I4273
sg4
I202911
sg6
g7
(g8
(I0
tp2563
g10
tp2564
Rp2565
(I1
(I1
tp2566
g17
I00
S'\t*\x1c\xdd2\xe7\x9a?'
p2567
tp2568
bsg22
g7
(g8
(I0
tp2569
g10
tp2570
Rp2571
(I1
(I1
tp2572
g17
I00
S'\xe6gj\x96\xf6\xe0\xee?'
p2573
tp2574
bsg29
I99832
sg30
I01
sg31
I-300000
sg32
S'kenneth.lay@enron.com'
p2575
sg34
I3600000
sg35
g5
sg36
I2411
sg37
I81525000
sg38
I36
sg39
I10359729
sg40
F0.4444444444444444
sg41
g5
sg42
I7000000
sg43
I49110078
sg44
I123
sg45
g7
(g8
(I0
tp2576
g10
tp2577
Rp2578
(I1
(I1
tp2579
g17
I00
S'\x1c\xc7q\x1c\xc7q\xdc?'
p2580
tp2581
bsg52
I16
sg53
F0.028785396676807865
sg54
I14761694
sg55
g7
(g8
(I0
tp2582
g10
tp2583
Rp2584
(I1
(I1
tp2585
g17
I00
S'8(\xbd)\xe8\xf3\xc0?'
p2586
tp2587
bsg62
g7
(g8
(I0
tp2588
g10
tp2589
Rp2590
(I1
(I1
tp2591
g17
I00
S'\x00\x00\x00\x00\x00\x00\xec?'
p2592
tp2593
bsg69
I1072321
sg70
I103559793
sg71
I34348384
sg72
g7
(g8
(I0
tp2594
g10
tp2595
Rp2596
(I1
(I1
tp2597
g17
I00
S'\xd2E\x17]t\xd1\xcd?'
p2598
tp2599
bssS'BUTTS ROBERT H'
p2600
(dp2601
g3
g5
sg4
g5
sg6
g7
(g8
(I0
tp2602
g10
tp2603
Rp2604
(I1
(I1
tp2605
g17
I00
S'\x00\x00\x00\x00\x00\x00\x00\x00'
p2606
tp2607
bsg22
g7
(g8
(I0
tp2608
g10
tp2609
Rp2610
(I1
(I1
tp2611
g17
I00
S'\x04\xb6\xd3\xb5f\x1f\xce?'
p2612
tp2613
bsg29
I9410
sg30
I00
sg31
I-75000
sg32
S'bob.butts@enron.com'
p2614
sg34
I175000
sg35
g5
sg36
g5
sg37
g5
sg38
g5
sg39
I150656
sg40
g93
sg41
g5
sg42
I750000
sg43
I417619
sg44
g5
sg45
g7
(g8
(I0
tp2615
g10
tp2616
Rp2617
(I1
(I1
tp2618
g17
I00
S'\x00\x00\x00\x00\x00\x00\x00\x00'
p2619
tp2620
bsg52
g5
sg53
g93
sg54
I417619
sg55
g7
(g8
(I0
tp2621
g10
tp2622
Rp2623
(I1
(I1
tp2624
g17
I00
S'\x00\x00\x00\x00\x00\x00\x00\x00'
p2625
tp2626
bsg62
g7
(g8
(I0
tp2627
g10
tp2628
Rp2629
(I1
(I1
tp2630
g17
I00
S'\x00\x00\x00\x00\x00\x00\xb8?'
p2631
tp2632
bsg69
I261516
sg70
I1271582
sg71
g5
sg72
g7
(g8
(I0
tp2633
g10
tp2634
Rp2635
(I1
(I1
tp2636
g17
I00
S'\x00\x00\x00\x00\x00\x00\x00\x00'
p2637
tp2638
bssS'OLSON CINDY K'
p2639
(dp2640
g3
I1184
sg4
I77716
sg6
g7
(g8
(I0
tp2641
g10
tp2642
Rp2643
(I1
(I1
tp2644
g17
I00
S'hgJ\xaf\xbf8\x99?'
p2645
tp2646
bsg22
g7
(g8
(I0
tp2647
g10
tp2648
Rp2649
(I1
(I1
tp2650
g17
I00
S'\x93\x92Z\xa7\xcf\xf3\xd2?'
p2651
tp2652
bsg29
I63791
sg30
I00
sg31
g5
sg32
S'cindy.olson@enron.com'
p2653
sg34
I100000
sg35
g5
sg36
I856
sg37
g5
sg38
I52
sg39
I972
sg40
F0.28846153846153844
sg41
g5
sg42
I750000
sg43
I2606763
sg44
I20
sg45
g7
(g8
(I0
tp2654
g10
tp2655
Rp2656
(I1
(I1
tp2657
g17
I00
S"b'vb'v\xd2?"
p2658
tp2659
bsg52
I15
sg53
F0.016891891891891893
sg54
I969729
sg55
g7
(g8
(I0
tp2660
g10
tp2661
Rp2662
(I1
(I1
tp2663
g17
I00
S'\x02\xae\xe6\x83\x80\xe5\xb3?'
p2664
tp2665
bsg62
g7
(g8
(I0
tp2666
g10
tp2667
Rp2668
(I1
(I1
tp2669
g17
I00
S'\x00\x00\x00\x00\x00\x00\xb8?'
p2670
tp2671
bsg69
I329078
sg70
I1321557
sg71
I1637034
sg72
g7
(g8
(I0
tp2672
g10
tp2673
Rp2674
(I1
(I1
tp2675
g17
I00
S'e\x93M6\xd9d\xa3?'
p2676
tp2677
bssS'MCDONALD REBECCA'
p2678
(dp2679
g3
I894
sg4
g5
sg6
g7
(g8
(I0
tp2680
g10
tp2681
Rp2682
(I1
(I1
tp2683
g17
I00
S'\t*\x1c\xdd2\xe7Z?'
p2684
tp2685
bsg22
g7
(g8
(I0
tp2686
g10
tp2687
Rp2688
(I1
(I1
tp2689
g17
I00
S'\x00\x00\x00\x00\x00\x00\x00\x00'
p2690
tp2691
bsg29
g5
sg30
I00
sg31
g5
sg32
S'rebecca.mcdonald@enron.com'
p2692
sg34
g5
sg35
g5
sg36
I720
sg37
g5
sg38
I13
sg39
g5
sg40
F0.07692307692307693
sg41
g5
sg42
g5
sg43
I1691366
sg44
I54
sg45
g7
(g8
(I0
tp2693
g10
tp2694
Rp2695
(I1
(I1
tp2696
g17
I00
S'\x14;\xb1\x13;\xb1\xb3?'
p2697
tp2698
bsg52
I1
sg53
F0.06040268456375839
sg54
I934065
sg55
g7
(g8
(I0
tp2699
g10
tp2700
Rp2701
(I1
(I1
tp2702
g17
I00
S'kj\xb3\xbcb\xc9\xd1?'
p2703
tp2704
bsg62
g7
(g8
(I0
tp2705
g10
tp2706
Rp2707
(I1
(I1
tp2708
g17
I00
S'\x00\x00\x00\x00\x00\x00\x00\x00'
p2709
tp2710
bsg69
g5
sg70
g5
sg71
I757301
sg72
g7
(g8
(I0
tp2711
g10
tp2712
Rp2713
(I1
(I1
tp2714
g17
I00
S'/\xba\xe8\xa2\x8b.\xba?'
p2715
tp2716
bssS'CUMBERLAND MICHAEL S'
p2717
(dp2718
g3
g5
sg4
g5
sg6
g7
(g8
(I0
tp2719
g10
tp2720
Rp2721
(I1
(I1
tp2722
g17
I00
S'\x00\x00\x00\x00\x00\x00\x00\x00'
p2723
tp2724
bsg22
g7
(g8
(I0
tp2725
g10
tp2726
Rp2727
(I1
(I1
tp2728
g17
I00
S':\xc6E0,L\xc5?'
p2729
tp2730
bsg29
I22344
sg30
I00
sg31
g5
sg32
g5
sg34
I275000
sg35
g5
sg36
g5
sg37
g5
sg38
g5
sg39
I713
sg40
g93
sg41
g5
sg42
I325000
sg43
I207940
sg44
g5
sg45
g7
(g8
(I0
tp2731
g10
tp2732
Rp2733
(I1
(I1
tp2734
g17
I00
S'\x00\x00\x00\x00\x00\x00\x00\x00'
p2735
tp2736
bsg52
g5
sg53
g93
sg54
I207940
sg55
g7
(g8
(I0
tp2737
g10
tp2738
Rp2739
(I1
(I1
tp2740
g17
I00
S'\x00\x00\x00\x00\x00\x00\x00\x00'
p2741
tp2742
bsg62
g7
(g8
(I0
tp2743
g10
tp2744
Rp2745
(I1
(I1
tp2746
g17
I00
S'\xcd\xcc\xcc\xcc\xcc\xcc\xa4?'
p2747
tp2748
bsg69
I184899
sg70
I807956
sg71
g5
sg72
g7
(g8
(I0
tp2749
g10
tp2750
Rp2751
(I1
(I1
tp2752
g17
I00
S'\x00\x00\x00\x00\x00\x00\x00\x00'
p2753
tp2754
bssS'GAHN ROBERT S'
p2755
(dp2756
g3
g5
sg4
I73122
sg6
g7
(g8
(I0
tp2757
g10
tp2758
Rp2759
(I1
(I1
tp2760
g17
I00
S'\x00\x00\x00\x00\x00\x00\x00\x00'
p2761
tp2762
bsg22
g7
(g8
(I0
tp2763
g10
tp2764
Rp2765
(I1
(I1
tp2766
g17
I00
S'\xbb\xc3<?\xcc\x1d\xc6?'
p2767
tp2768
bsg29
I50080
sg30
I00
sg31
I-1042
sg32
g5
sg34
g5
sg35
g5
sg36
g5
sg37
g5
sg38
g5
sg39
I76547
sg40
g93
sg41
g5
sg42
I509870
sg43
I318607
sg44
g5
sg45
g7
(g8
(I0
tp2769
g10
tp2770
Rp2771
(I1
(I1
tp2772
g17
I00
S'\x00\x00\x00\x00\x00\x00\x00\x00'
p2773
tp2774
bsg52
g5
sg53
g93
sg54
I235370
sg55
g7
(g8
(I0
tp2775
g10
tp2776
Rp2777
(I1
(I1
tp2778
g17
I00
S'\x00\x00\x00\x00\x00\x00\x00\x00'
p2779
tp2780
bsg62
g7
(g8
(I0
tp2781
g10
tp2782
Rp2783
(I1
(I1
tp2784
g17
I00
S'\xc5\xc4\xe6\xe3\xdaP\xb0?'
p2785
tp2786
bsg69
I192008
sg70
I900585
sg71
I83237
sg72
g7
(g8
(I0
tp2787
g10
tp2788
Rp2789
(I1
(I1
tp2790
g17
I00
S'\x00\x00\x00\x00\x00\x00\x00\x00'
p2791
tp2792
bssS'MCCLELLAN GEORGE'
p2793
(dp2794
g3
I1744
sg4
g5
sg6
g7
(g8
(I0
tp2795
g10
tp2796
Rp2797
(I1
(I1
tp2798
g17
I00
S'\x00\x00\x00\x00\x00\x00\x00\x00'
p2799
tp2800
bsg22
g7
(g8
(I0
tp2801
g10
tp2802
Rp2803
(I1
(I1
tp2804
g17
I00
S'\x9c~\x06\xb0VW\xce?'
p2805
tp2806
bsg29
I228763
sg30
I00
sg31
I-125000
sg32
S'george.mcclellan@enron.com'
p2807
sg34
g5
sg35
g5
sg36
I1469
sg37
g5
sg38
I49
sg39
I51587
sg40
F0.0
sg41
g5
sg42
I900000
sg43
I947861
sg44
I52
sg45
g7
(g8
(I0
tp2808
g10
tp2809
Rp2810
(I1
(I1
tp2811
g17
I00
S'\x00\x00\x00\x00\x00\x00\x00\x00'
p2812
tp2813
bsg52
I0
sg53
F0.02981651376146789
sg54
I441096
sg55
g7
(g8
(I0
tp2814
g10
tp2815
Rp2816
(I1
(I1
tp2817
g17
I00
S'\xb0\x1b\xf2\xb1]\x8f\xc1?'
p2818
tp2819
bsg62
g7
(g8
(I0
tp2820
g10
tp2821
Rp2822
(I1
(I1
tp2823
g17
I00
S'\xcc\xcc\xcc\xcc\xcc\xcc\xbc?'
p2824
tp2825
bsg69
I263413
sg70
I1318763
sg71
I506765
sg72
g7
(g8
(I0
tp2826
g10
tp2827
Rp2828
(I1
(I1
tp2829
g17
I00
S'6\xd9d\x93M6\xb9?'
p2830
tp2831
bssS'HERMANN ROBERT J'
p2832
(dp2833
g3
g5
sg4
g5
sg6
g7
(g8
(I0
tp2834
g10
tp2835
Rp2836
(I1
(I1
tp2837
g17
I00
S'\x00\x00\x00\x00\x00\x00\x00\x00'
p2838
tp2839
bsg22
g7
(g8
(I0
tp2840
g10
tp2841
Rp2842
(I1
(I1
tp2843
g17
I00
S'\x7f\x18+ 9A\xce?'
p2844
tp2845
bsg29
I48357
sg30
I00
sg31
I-280000
sg32
S'robert.hermann@enron.com'
p2846
sg34
I150000
sg35
g5
sg36
g5
sg37
g5
sg38
g5
sg39
I416441
sg40
g93
sg41
g5
sg42
I700000
sg43
I668132
sg44
g5
sg45
g7
(g8
(I0
tp2847
g10
tp2848
Rp2849
(I1
(I1
tp2850
g17
I00
S'\x00\x00\x00\x00\x00\x00\x00\x00'
p2851
tp2852
bsg52
g5
sg53
g93
sg54
I480632
sg55
g7
(g8
(I0
tp2853
g10
tp2854
Rp2855
(I1
(I1
tp2856
g17
I00
S'\x00\x00\x00\x00\x00\x00\x00\x00'
p2857
tp2858
bsg62
g7
(g8
(I0
tp2859
g10
tp2860
Rp2861
(I1
(I1
tp2862
g17
I00
S'ffffff\xb6?'
p2863
tp2864
bsg69
I262663
sg70
I1297461
sg71
I187500
sg72
g7
(g8
(I0
tp2865
g10
tp2866
Rp2867
(I1
(I1
tp2868
g17
I00
S'\x00\x00\x00\x00\x00\x00\x00\x00'
p2869
tp2870
bssS'SCRIMSHAW MATTHEW'
p2871
(dp2872
g3
g5
sg4
g5
sg6
g7
(g8
(I0
tp2873
g10
tp2874
Rp2875
(I1
(I1
tp2876
g17
I00
S'\x00\x00\x00\x00\x00\x00\x00\x00'
p2877
tp2878
bsg22
g7
(g8
(I0
tp2879
g10
tp2880
Rp2881
(I1
(I1
tp2882
g17
I00
S'\x00\x00\x00\x00\x00\x00\x00\x00'
p2883
tp2884
bsg29
g5
sg30
I00
sg31
g5
sg32
S'matthew.scrimshaw@enron.com'
p2885
sg34
g5
sg35
g5
sg36
g5
sg37
g5
sg38
g5
sg39
g5
sg40
g93
sg41
g5
sg42
g5
sg43
I759557
sg44
g5
sg45
g7
(g8
(I0
tp2886
g10
tp2887
Rp2888
(I1
(I1
tp2889
g17
I00
S'\x00\x00\x00\x00\x00\x00\x00\x00'
p2890
tp2891
bsg52
g5
sg53
g93
sg54
g5
sg55
g7
(g8
(I0
tp2892
g10
tp2893
Rp2894
(I1
(I1
tp2895
g17
I00
S'\x00\x00\x00\x00\x00\x00\x00\x00'
p2896
tp2897
bsg62
g7
(g8
(I0
tp2898
g10
tp2899
Rp2900
(I1
(I1
tp2901
g17
I00
S'\x00\x00\x00\x00\x00\x00\x00\x00'
p2902
tp2903
bsg69
g5
sg70
g5
sg71
I759557
sg72
g7
(g8
(I0
tp2904
g10
tp2905
Rp2906
(I1
(I1
tp2907
g17
I00
S'\x00\x00\x00\x00\x00\x00\x00\x00'
p2908
tp2909
bssS'GATHMANN WILLIAM D'
p2910
(dp2911
g3
g5
sg4
g5
sg6
g7
(g8
(I0
tp2912
g10
tp2913
Rp2914
(I1
(I1
tp2915
g17
I00
S'\x00\x00\x00\x00\x00\x00\x00\x00'
p2916
tp2917
bsg22
g7
(g8
(I0
tp2918
g10
tp2919
Rp2920
(I1
(I1
tp2921
g17
I00
S'\x00\x00\x00\x00\x00\x00\x00\x00'
p2922
tp2923
bsg29
g5
sg30
I00
sg31
g5
sg32
g5
sg34
g5
sg35
I-72419
sg36
g5
sg37
g5
sg38
g5
sg39
g5
sg40
g93
sg41
g5
sg42
g5
sg43
I1945360
sg44
g5
sg45
g7
(g8
(I0
tp2924
g10
tp2925
Rp2926
(I1
(I1
tp2927
g17
I00
S'\x00\x00\x00\x00\x00\x00\x00\x00'
p2928
tp2929
bsg52
g5
sg53
g93
sg54
I264013
sg55
g7
(g8
(I0
tp2930
g10
tp2931
Rp2932
(I1
(I1
tp2933
g17
I00
S'\x00\x00\x00\x00\x00\x00\x00\x00'
p2934
tp2935
bsg62
g7
(g8
(I0
tp2936
g10
tp2937
Rp2938
(I1
(I1
tp2939
g17
I00
S'\x00\x00\x00\x00\x00\x00\x00\x00'
p2940
tp2941
bsg69
g5
sg70
g5
sg71
I1753766
sg72
g7
(g8
(I0
tp2942
g10
tp2943
Rp2944
(I1
(I1
tp2945
g17
I00
S'\x00\x00\x00\x00\x00\x00\x00\x00'
p2946
tp2947
bssS'HAEDICKE MARK E'
p2948
(dp2949
g3
I4009
sg4
I2157527
sg6
g7
(g8
(I0
tp2950
g10
tp2951
Rp2952
(I1
(I1
tp2953
g17
I00
S'\x11\xd8\xbez\\\xa4\xb9?'
p2954
tp2955
bsg22
g7
(g8
(I0
tp2956
g10
tp2957
Rp2958
(I1
(I1
tp2959
g17
I00
S'\x83\x12W\xe8\xf7\x8b\xd5?'
p2960
tp2961
bsg29
I76169
sg30
I00
sg31
I-934484
sg32
S'mark.haedicke@enron.com'
p2962
sg34
I983346
sg35
I-329825
sg36
I1847
sg37
g5
sg38
I1941
sg39
I52382
sg40
F0.03142709943328181
sg41
g5
sg42
I1150000
sg43
I803094
sg44
I180
sg45
g7
(g8
(I0
tp2963
g10
tp2964
Rp2965
(I1
(I1
tp2966
g17
I00
S'\xf0T\x8cx6\x17\xa0?'
p2967
tp2968
bsg52
I61
sg53
F0.04489897730107259
sg54
I524169
sg55
g7
(g8
(I0
tp2969
g10
tp2970
Rp2971
(I1
(I1
tp2972
g17
I00
S'\x96\x95GPPq\xca?'
p2973
tp2974
bsg62
g7
(g8
(I0
tp2975
g10
tp2976
Rp2977
(I1
(I1
tp2978
g17
I00
S'ffffff\xc2?'
p2979
tp2980
bsg69
I374125
sg70
I3859065
sg71
I608750
sg72
g7
(g8
(I0
tp2981
g10
tp2982
Rp2983
(I1
(I1
tp2984
g17
I00
S'\xd2E\x17]t\xd1\xd5?'
p2985
tp2986
bssS'BOWEN JR RAYMOND M'
p2987
(dp2988
g3
I1858
sg4
g5
sg6
g7
(g8
(I0
tp2989
g10
tp2990
Rp2991
(I1
(I1
tp2992
g17
I00
S'hgJ\xaf\xbf8\x99?'
p2993
tp2994
bsg22
g7
(g8
(I0
tp2995
g10
tp2996
Rp2997
(I1
(I1
tp2998
g17
I00
S'k^\xaf\x8b\x98\x0b\xd0?'
p2999
tp3000
bsg29
I65907
sg30
I01
sg31
I-833
sg32
S'raymond.bowen@enron.com'
p3001
sg34
I974293
sg35
g5
sg36
I1593
sg37
g5
sg38
I27
sg39
I1621
sg40
F0.5555555555555556
sg41
g5
sg42
I1350000
sg43
I252055
sg44
I140
sg45
g7
(g8
(I0
tp3002
g10
tp3003
Rp3004
(I1
(I1
tp3005
g17
I00
S'r\x1c\xc7q\x1c\xc7\xe1?'
p3006
tp3007
bsg52
I15
sg53
F0.07534983853606028
sg54
I252055
sg55
g7
(g8
(I0
tp3008
g10
tp3009
Rp3010
(I1
(I1
tp3011
g17
I00
S'\x89~\x9d\xce(0\xd6?'
p3012
tp3013
bsg62
g7
(g8
(I0
tp3014
g10
tp3015
Rp3016
(I1
(I1
tp3017
g17
I00
S'\x99\x99\x99\x99\x99\x99\xc5?'
p3018
tp3019
bsg69
I278601
sg70
I2669589
sg71
g5
sg72
g7
(g8
(I0
tp3020
g10
tp3021
Rp3022
(I1
(I1
tp3023
g17
I00
S'\xf8\xe0\x83\x0f>\xf8\xd0?'
p3024
tp3025
bssS'GILLIS JOHN'
p3026
(dp3027
g3
g5
sg4
g5
sg6
g7
(g8
(I0
tp3028
g10
tp3029
Rp3030
(I1
(I1
tp3031
g17
I00
S'\x00\x00\x00\x00\x00\x00\x00\x00'
p3032
tp3033
bsg22
g7
(g8
(I0
tp3034
g10
tp3035
Rp3036
(I1
(I1
tp3037
g17
I00
S'\x00\x00\x00\x00\x00\x00\x00\x00'
p3038
tp3039
bsg29
g5
sg30
I00
sg31
g5
sg32
g5
sg34
g5
sg35
g5
sg36
g5
sg37
g5
sg38
g5
sg39
g5
sg40
g93
sg41
g5
sg42
g5
sg43
I85641
sg44
g5
sg45
g7
(g8
(I0
tp3040
g10
tp3041
Rp3042
(I1
(I1
tp3043
g17
I00
S'\x00\x00\x00\x00\x00\x00\x00\x00'
p3044
tp3045
bsg52
g5
sg53
g93
sg54
I75838
sg55
g7
(g8
(I0
tp3046
g10
tp3047
Rp3048
(I1
(I1
tp3049
g17
I00
S'\x00\x00\x00\x00\x00\x00\x00\x00'
p3050
tp3051
bsg62
g7
(g8
(I0
tp3052
g10
tp3053
Rp3054
(I1
(I1
tp3055
g17
I00
S'\x00\x00\x00\x00\x00\x00\x00\x00'
p3056
tp3057
bsg69
g5
sg70
g5
sg71
I9803
sg72
g7
(g8
(I0
tp3058
g10
tp3059
Rp3060
(I1
(I1
tp3061
g17
I00
S'\x00\x00\x00\x00\x00\x00\x00\x00'
p3062
tp3063
bssS'FITZGERALD JAY L'
p3064
(dp3065
g3
I936
sg4
g5
sg6
g7
(g8
(I0
tp3066
g10
tp3067
Rp3068
(I1
(I1
tp3069
g17
I00
S'\t*\x1c\xdd2\xe7\x8a?'
p3070
tp3071
bsg22
g7
(g8
(I0
tp3072
g10
tp3073
Rp3074
(I1
(I1
tp3075
g17
I00
S'\xb5\x00eA\x9a\xf0\xc6?'
p3076
tp3077
bsg29
I23870
sg30
I00
sg31
g5
sg32
S'jay.fitzgerald@enron.com'
p3078
sg34
I556416
sg35
g5
sg36
I723
sg37
g5
sg38
I16
sg39
I285414
sg40
F0.5
sg41
g5
sg42
I350000
sg43
I1621236
sg44
I1
sg45
g7
(g8
(I0
tp3079
g10
tp3080
Rp3081
(I1
(I1
tp3082
g17
I00
S'\x00\x00\x00\x00\x00\x00\xe0?'
p3083
tp3084
bsg52
I8
sg53
F0.0010683760683760685
sg54
I956775
sg55
g7
(g8
(I0
tp3085
g10
tp3086
Rp3087
(I1
(I1
tp3088
g17
I00
S'_,\xa5,s"t?'
p3089
tp3090
bsg62
g7
(g8
(I0
tp3091
g10
tp3092
Rp3093
(I1
(I1
tp3094
g17
I00
S'ffffff\xa6?'
p3095
tp3096
bsg69
I199157
sg70
I1414857
sg71
I664461
sg72
g7
(g8
(I0
tp3097
g10
tp3098
Rp3099
(I1
(I1
tp3100
g17
I00
S'\x08\x1f|\xf0\xc1\x07_?'
p3101
tp3102
bssS'MORAN MICHAEL P'
p3103
(dp3104
g3
I672
sg4
g5
sg6
g7
(g8
(I0
tp3105
g10
tp3106
Rp3107
(I1
(I1
tp3108
g17
I00
S'\x00\x00\x00\x00\x00\x00\x00\x00'
p3109
tp3110
bsg22
g7
(g8
(I0
tp3111
g10
tp3112
Rp3113
(I1
(I1
tp3114
g17
I00
S'\x00\x00\x00\x00\x00\x00\x00\x00'
p3115
tp3116
bsg29
g5
sg30
I00
sg31
g5
sg32
S'michael.moran@enron.com'
p3117
sg34
g5
sg35
g5
sg36
I127
sg37
g5
sg38
I19
sg39
g5
sg40
F0.0
sg41
g5
sg42
g5
sg43
I221141
sg44
I0
sg45
g7
(g8
(I0
tp3118
g10
tp3119
Rp3120
(I1
(I1
tp3121
g17
I00
S'\x00\x00\x00\x00\x00\x00\x00\x00'
p3122
tp3123
bsg52
I0
sg53
F0.0
sg54
I161602
sg55
g7
(g8
(I0
tp3124
g10
tp3125
Rp3126
(I1
(I1
tp3127
g17
I00
S'\x00\x00\x00\x00\x00\x00\x00\x00'
p3128
tp3129
bsg62
g7
(g8
(I0
tp3130
g10
tp3131
Rp3132
(I1
(I1
tp3133
g17
I00
S'\x00\x00\x00\x00\x00\x00\x00\x00'
p3134
tp3135
bsg69
g5
sg70
g5
sg71
I59539
sg72
g7
(g8
(I0
tp3136
g10
tp3137
Rp3138
(I1
(I1
tp3139
g17
I00
S'\x00\x00\x00\x00\x00\x00\x00\x00'
p3140
tp3141
bssS'REDMOND BRIAN L'
p3142
(dp3143
g3
I1671
sg4
g5
sg6
g7
(g8
(I0
tp3144
g10
tp3145
Rp3146
(I1
(I1
tp3147
g17
I00
S'/\x90I\xf1\x02\x99\xb4?'
p3148
tp3149
bsg22
g7
(g8
(I0
tp3150
g10
tp3151
Rp3152
(I1
(I1
tp3153
g17
I00
S'K\x87z\xc1\x19O\xb6?'
p3154
tp3155
bsg29
I14689
sg30
I00
sg31
g5
sg32
S'brian.redmond@enron.com'
p3156
sg34
g5
sg35
g5
sg36
I1063
sg37
g5
sg38
I221
sg39
g5
sg40
F0.22171945701357465
sg41
g5
sg42
g5
sg43
I7890324
sg44
I204
sg45
g7
(g8
(I0
tp3157
g10
tp3158
Rp3159
(I1
(I1
tp3160
g17
I00
S'\x9cMa\x9cMa\xcc?'
p3161
tp3162
bsg52
I49
sg53
F0.12208258527827648
sg54
I381285
sg55
g7
(g8
(I0
tp3163
g10
tp3164
Rp3165
(I1
(I1
tp3166
g17
I00
S'Bq\x16\xc3\x86\xf9\xe1?'
p3167
tp3168
bsg62
g7
(g8
(I0
tp3169
g10
tp3170
Rp3171
(I1
(I1
tp3172
g17
I00
S'\x00\x00\x00\x00\x00\x00\x00\x00'
p3173
tp3174
bsg69
I96840
sg70
I111529
sg71
I7509039
sg72
g7
(g8
(I0
tp3175
g10
tp3176
Rp3177
(I1
(I1
tp3178
g17
I00
S'\xba\xe8\xa2\x8b.\xba\xd8?'
p3179
tp3180
bssS'BAZELIDES PHILIP J'
p3181
(dp3182
g3
g5
sg4
I684694
sg6
g7
(g8
(I0
tp3183
g10
tp3184
Rp3185
(I1
(I1
tp3186
g17
I00
S'\x00\x00\x00\x00\x00\x00\x00\x00'
p3187
tp3188
bsg22
g7
(g8
(I0
tp3189
g10
tp3190
Rp3191
(I1
(I1
tp3192
g17
I00
S'o\x9aw\xa25\x9e\xb2?'
p3193
tp3194
bsg29
g5
sg30
I00
sg31
g5
sg32
g5
sg34
I93750
sg35
g5
sg36
g5
sg37
g5
sg38
g5
sg39
I874
sg40
g93
sg41
g5
sg42
g5
sg43
I1599641
sg44
g5
sg45
g7
(g8
(I0
tp3195
g10
tp3196
Rp3197
(I1
(I1
tp3198
g17
I00
S'\x00\x00\x00\x00\x00\x00\x00\x00'
p3199
tp3200
bsg52
g5
sg53
g93
sg54
g5
sg55
g7
(g8
(I0
tp3201
g10
tp3202
Rp3203
(I1
(I1
tp3204
g17
I00
S'\x00\x00\x00\x00\x00\x00\x00\x00'
p3205
tp3206
bsg62
g7
(g8
(I0
tp3207
g10
tp3208
Rp3209
(I1
(I1
tp3210
g17
I00
S'\x00\x00\x00\x00\x00\x00\x00\x00'
p3211
tp3212
bsg69
I80818
sg70
I860136
sg71
I1599641
sg72
g7
(g8
(I0
tp3213
g10
tp3214
Rp3215
(I1
(I1
tp3216
g17
I00
S'\x00\x00\x00\x00\x00\x00\x00\x00'
p3217
tp3218
bssS'BELDEN TIMOTHY N'
p3219
(dp3220
g3
I7991
sg4
I2144013
sg6
g7
(g8
(I0
tp3221
g10
tp3222
Rp3223
(I1
(I1
tp3224
g17
I00
S'x\xc3\x8f\xea\x12\xb3\xc6?'
p3225
tp3226
bsg22
g7
(g8
(I0
tp3227
g10
tp3228
Rp3229
(I1
(I1
tp3230
g17
I00
S'\xb0\xa6\xb9\xca@\xa6\xc8?'
p3231
tp3232
bsg29
I17355
sg30
I01
sg31
I-2334434
sg32
S'tim.belden@enron.com'
p3233
sg34
g5
sg35
g5
sg36
I5521
sg37
g5
sg38
I484
sg39
I210698
sg40
F0.2231404958677686
sg41
g5
sg42
I5249999
sg43
I1110705
sg44
I228
sg45
g7
(g8
(I0
tp3234
g10
tp3235
Rp3236
(I1
(I1
tp3237
g17
I00
S'3(\x15&\xde\x8f\xcc?'
p3238
tp3239
bsg52
I108
sg53
F0.028532098610937303
sg54
I157569
sg55
g7
(g8
(I0
tp3240
g10
tp3241
Rp3242
(I1
(I1
tp3243
g17
I00
S'<\x97,\xbd\xb7\xcd\xc0?'
p3244
tp3245
bsg62
g7
(g8
(I0
tp3246
g10
tp3247
Rp3248
(I1
(I1
tp3249
g17
I00
S'}!\xe4\xbc\xff\xff\xe4?'
p3250
tp3251
bsg69
I213999
sg70
I5501630
sg71
I953136
sg72
g7
(g8
(I0
tp3252
g10
tp3253
Rp3254
(I1
(I1
tp3255
g17
I00
S'\xa3\x8b.\xba\xe8\xa2\xdb?'
p3256
tp3257
bssS'DURAN WILLIAM D'
p3258
(dp3259
g3
I904
sg4
g5
sg6
g7
(g8
(I0
tp3260
g10
tp3261
Rp3262
(I1
(I1
tp3263
g17
I00
S'\x87\x1f\xd5%f-t?'
p3264
tp3265
bsg22
g7
(g8
(I0
tp3266
g10
tp3267
Rp3268
(I1
(I1
tp3269
g17
I00
S'\xad\xe0\xfe\x13\xbdD\xc8?'
p3270
tp3271
bsg29
I25785
sg30
I00
sg31
g5
sg32
S'w.duran@enron.com'
p3272
sg34
I1105218
sg35
g5
sg36
I599
sg37
g5
sg38
I12
sg39
I1568
sg40
F0.25
sg41
g5
sg42
I750000
sg43
I1640910
sg44
I106
sg45
g7
(g8
(I0
tp3273
g10
tp3274
Rp3275
(I1
(I1
tp3276
g17
I00
S'\x00\x00\x00\x00\x00\x00\xd0?'
p3277
tp3278
bsg52
I3
sg53
F0.1172566371681416
sg54
I189041
sg55
g7
(g8
(I0
tp3279
g10
tp3280
Rp3281
(I1
(I1
tp3282
g17
I00
S'q\xddr\x8f\xa0C\xe1?'
p3283
tp3284
bsg62
g7
(g8
(I0
tp3285
g10
tp3286
Rp3287
(I1
(I1
tp3288
g17
I00
S'\x00\x00\x00\x00\x00\x00\xb8?'
p3289
tp3290
bsg69
I210692
sg70
I2093263
sg71
I1451869
sg72
g7
(g8
(I0
tp3291
g10
tp3292
Rp3293
(I1
(I1
tp3294
g17
I00
S'\xb3\xc9&\x9bl\xb2\xc9?'
p3295
tp3296
bssS'THORN TERENCE H'
p3297
(dp3298
g3
I266
sg4
I16586
sg6
g7
(g8
(I0
tp3299
g10
tp3300
Rp3301
(I1
(I1
tp3302
g17
I00
S'\x00\x00\x00\x00\x00\x00\x00\x00'
p3303
tp3304
bsg22
g7
(g8
(I0
tp3305
g10
tp3306
Rp3307
(I1
(I1
tp3308
g17
I00
S'6_M^\xec\x94\xc9?'
p3309
tp3310
bsg29
I46145
sg30
I00
sg31
g5
sg32
S'terence.thorn@enron.com'
p3311
sg34
I200000
sg35
g5
sg36
I73
sg37
g5
sg38
I41
sg39
I426629
sg40
F0.0
sg41
g5
sg42
g5
sg43
I4817796
sg44
I0
sg45
g7
(g8
(I0
tp3312
g10
tp3313
Rp3314
(I1
(I1
tp3315
g17
I00
S'\x00\x00\x00\x00\x00\x00\x00\x00'
p3316
tp3317
bsg52
I0
sg53
F0.0
sg54
I365320
sg55
g7
(g8
(I0
tp3318
g10
tp3319
Rp3320
(I1
(I1
tp3321
g17
I00
S'\x00\x00\x00\x00\x00\x00\x00\x00'
p3322
tp3323
bsg62
g7
(g8
(I0
tp3324
g10
tp3325
Rp3326
(I1
(I1
tp3327
g17
I00
S'\x00\x00\x00\x00\x00\x00\x00\x00'
p3328
tp3329
bsg69
I222093
sg70
I911453
sg71
I4452476
sg72
g7
(g8
(I0
tp3330
g10
tp3331
Rp3332
(I1
(I1
tp3333
g17
I00
S'\x00\x00\x00\x00\x00\x00\x00\x00'
p3334
tp3335
bssS'FASTOW ANDREW S'
p3336
(dp3337
g3
g5
sg4
g5
sg6
g7
(g8
(I0
tp3338
g10
tp3339
Rp3340
(I1
(I1
tp3341
g17
I00
S'\x00\x00\x00\x00\x00\x00\x00\x00'
p3342
tp3343
bsg22
g7
(g8
(I0
tp3344
g10
tp3345
Rp3346
(I1
(I1
tp3347
g17
I00
S'\xff\xc2\x83Y\x7fa\xd9?'
p3348
tp3349
bsg29
I55921
sg30
I01
sg31
I-1386055
sg32
S'andrew.fastow@enron.com'
p3350
sg34
I1736055
sg35
g5
sg36
g5
sg37
g5
sg38
g5
sg39
I277464
sg40
g93
sg41
g5
sg42
I1300000
sg43
I1794412
sg44
g5
sg45
g7
(g8
(I0
tp3351
g10
tp3352
Rp3353
(I1
(I1
tp3354
g17
I00
S'\x00\x00\x00\x00\x00\x00\x00\x00'
p3355
tp3356
bsg52
g5
sg53
g93
sg54
I1794412
sg55
g7
(g8
(I0
tp3357
g10
tp3358
Rp3359
(I1
(I1
tp3360
g17
I00
S'\x00\x00\x00\x00\x00\x00\x00\x00'
p3361
tp3362
bsg62
g7
(g8
(I0
tp3363
g10
tp3364
Rp3365
(I1
(I1
tp3366
g17
I00
S'\xcd\xcc\xcc\xcc\xcc\xcc\xc4?'
p3367
tp3368
bsg69
I440698
sg70
I2424083
sg71
g5
sg72
g7
(g8
(I0
tp3369
g10
tp3370
Rp3371
(I1
(I1
tp3372
g17
I00
S'\x00\x00\x00\x00\x00\x00\x00\x00'
p3373
tp3374
bssS'FOY JOE'
p3375
(dp3376
g3
I57
sg4
I181755
sg6
g7
(g8
(I0
tp3377
g10
tp3378
Rp3379
(I1
(I1
tp3380
g17
I00
S'\x00\x00\x00\x00\x00\x00\x00\x00'
p3381
tp3382
bsg22
g7
(g8
(I0
tp3383
g10
tp3384
Rp3385
(I1
(I1
tp3386
g17
I00
S'\x00\x00\x00\x00\x00\x00\x00\x00'
p3387
tp3388
bsg29
g5
sg30
I00
sg31
g5
sg32
S'tracy.foy@enron.com'
p3389
sg34
g5
sg35
g5
sg36
I2
sg37
g5
sg38
I13
sg39
g5
sg40
F0.0
sg41
g5
sg42
g5
sg43
I343434
sg44
I0
sg45
g7
(g8
(I0
tp3390
g10
tp3391
Rp3392
(I1
(I1
tp3393
g17
I00
S'\x00\x00\x00\x00\x00\x00\x00\x00'
p3394
tp3395
bsg52
I0
sg53
F0.0
sg54
g5
sg55
g7
(g8
(I0
tp3396
g10
tp3397
Rp3398
(I1
(I1
tp3399
g17
I00
S'\x00\x00\x00\x00\x00\x00\x00\x00'
p3400
tp3401
bsg62
g7
(g8
(I0
tp3402
g10
tp3403
Rp3404
(I1
(I1
tp3405
g17
I00
S'\x00\x00\x00\x00\x00\x00\x00\x00'
p3406
tp3407
bsg69
g5
sg70
I181755
sg71
I343434
sg72
g7
(g8
(I0
tp3408
g10
tp3409
Rp3410
(I1
(I1
tp3411
g17
I00
S'\x00\x00\x00\x00\x00\x00\x00\x00'
p3412
tp3413
bssS'CALGER CHRISTOPHER F'
p3414
(dp3415
g3
I2598
sg4
g5
sg6
g7
(g8
(I0
tp3416
g10
tp3417
Rp3418
(I1
(I1
tp3419
g17
I00
S'\xd7\x00\xbe\xbc\x9f\x04\xa5?'
p3420
tp3421
bsg22
g7
(g8
(I0
tp3422
g10
tp3423
Rp3424
(I1
(I1
tp3425
g17
I00
S'\x81\xbd\xee\x88\x86\xaa\xcb?'
p3426
tp3427
bsg29
I35818
sg30
I01
sg31
I-262500
sg32
S'christopher.calger@enron.com'
p3428
sg34
I375304
sg35
g5
sg36
I2188
sg37
g5
sg38
I144
sg39
I486
sg40
F0.1736111111111111
sg41
g5
sg42
I1250000
sg43
I126027
sg44
I199
sg45
g7
(g8
(I0
tp3429
g10
tp3430
Rp3431
(I1
(I1
tp3432
g17
I00
S'\x8e\xe38\x8e\xe38\xc6?'
p3433
tp3434
bsg52
I25
sg53
F0.07659738260200154
sg54
I126027
sg55
g7
(g8
(I0
tp3435
g10
tp3436
Rp3437
(I1
(I1
tp3438
g17
I00
S'`\x1e\xc4<4\x8e\xd6?'
p3439
tp3440
bsg62
g7
(g8
(I0
tp3441
g10
tp3442
Rp3443
(I1
(I1
tp3444
g17
I00
S'\x00\x00\x00\x00\x00\x00\xc4?'
p3445
tp3446
bsg69
I240189
sg70
I1639297
sg71
g5
sg72
g7
(g8
(I0
tp3447
g10
tp3448
Rp3449
(I1
(I1
tp3450
g17
I00
S'\x1f|\xf0\xc1\x07\x1f\xd8?'
p3451
tp3452
bssS'RICE KENNETH D'
p3453
(dp3454
g3
I905
sg4
g5
sg6
g7
(g8
(I0
tp3455
g10
tp3456
Rp3457
(I1
(I1
tp3458
g17
I00
S'\t*\x1c\xdd2\xe7z?'
p3459
tp3460
bsg22
g7
(g8
(I0
tp3461
g10
tp3462
Rp3463
(I1
(I1
tp3464
g17
I00
S'h\x02\x8c\xd8\xb59\xd8?'
p3465
tp3466
bsg29
I46950
sg30
I01
sg31
I-3504386
sg32
S'ken.rice@enron.com'
p3467
sg34
I1617011
sg35
g5
sg36
I864
sg37
g5
sg38
I18
sg39
I174839
sg40
F0.2222222222222222
sg41
g5
sg42
I1750000
sg43
I22542539
sg44
I42
sg45
g7
(g8
(I0
tp3468
g10
tp3469
Rp3470
(I1
(I1
tp3471
g17
I00
S'\x1c\xc7q\x1c\xc7q\xcc?'
p3472
tp3473
bsg52
I4
sg53
F0.04640883977900553
sg54
I2748364
sg55
g7
(g8
(I0
tp3474
g10
tp3475
Rp3476
(I1
(I1
tp3477
g17
I00
S'\x1er\x90\xc0\xf3T\xcb?'
p3478
tp3479
bsg62
g7
(g8
(I0
tp3480
g10
tp3481
Rp3482
(I1
(I1
tp3483
g17
I00
S'\x00\x00\x00\x00\x00\x00\xcc?'
p3484
tp3485
bsg69
I420636
sg70
I505050
sg71
I19794175
sg72
g7
(g8
(I0
tp3486
g10
tp3487
Rp3488
(I1
(I1
tp3489
g17
I00
S']t\xd1E\x17]\xb4?'
p3490
tp3491
bssS'KAMINSKI WINCENTY J'
p3492
(dp3493
g3
I4607
sg4
g5
sg6
g7
(g8
(I0
tp3494
g10
tp3495
Rp3496
(I1
(I1
tp3497
g17
I00
S'\x14\xd0\xb1\xf9n\xf8\xd1?'
p3498
tp3499
bsg22
g7
(g8
(I0
tp3500
g10
tp3501
Rp3502
(I1
(I1
tp3503
g17
I00
S'\xf7\x8a\tx\xfc\xaf\xcf?'
p3504
tp3505
bsg29
I83585
sg30
I00
sg31
g5
sg32
S'vince.kaminski@enron.com'
p3506
sg34
I323466
sg35
g5
sg36
I583
sg37
g5
sg38
I14368
sg39
I4669
sg40
F0.011901447661469933
sg41
g5
sg42
I400000
sg43
I976037
sg44
I41
sg45
g7
(g8
(I0
tp3507
g10
tp3508
Rp3509
(I1
(I1
tp3510
g17
I00
S'\xba:\xd9C\xc9_\x88?'
p3511
tp3512
bsg52
I171
sg53
F0.008899500759713479
sg54
I126027
sg55
g7
(g8
(I0
tp3513
g10
tp3514
Rp3515
(I1
(I1
tp3516
g17
I00
S'\xdc\x1d\t\x11\x07\xf7\xa4?'
p3517
tp3518
bsg62
g7
(g8
(I0
tp3519
g10
tp3520
Rp3521
(I1
(I1
tp3522
g17
I00
S'\x99\x99\x99\x99\x99\x99\xa9?'
p3523
tp3524
bsg69
I275101
sg70
I1086821
sg71
I850010
sg72
g7
(g8
(I0
tp3525
g10
tp3526
Rp3527
(I1
(I1
tp3528
g17
I00
S'\xe1\x83\x0f>\xf8\xe0\xb3?'
p3529
tp3530
bssS'COX DAVID'
p3531
(dp3532
g3
I102
sg4
g5
sg6
g7
(g8
(I0
tp3533
g10
tp3534
Rp3535
(I1
(I1
tp3536
g17
I00
S'\t*\x1c\xdd2\xe7z?'
p3537
tp3538
bsg22
g7
(g8
(I0
tp3539
g10
tp3540
Rp3541
(I1
(I1
tp3542
g17
I00
S'\n\xdc)\xa7\xc0\x19\xd2?'
p3543
tp3544
bsg29
I27861
sg30
I00
sg31
I-41250
sg32
S'chip.cox@enron.com'
p3545
sg34
g5
sg35
g5
sg36
I71
sg37
g5
sg38
I33
sg39
I494
sg40
F0.12121212121212122
sg41
g5
sg42
I800000
sg43
I495633
sg44
I0
sg45
g7
(g8
(I0
tp3546
g10
tp3547
Rp3548
(I1
(I1
tp3549
g17
I00
S'\x08\x1f|\xf0\xc1\x07\xbf?'
p3550
tp3551
bsg52
I4
sg53
F0.0
sg54
I378082
sg55
g7
(g8
(I0
tp3552
g10
tp3553
Rp3554
(I1
(I1
tp3555
g17
I00
S'\x00\x00\x00\x00\x00\x00\x00\x00'
p3556
tp3557
bsg62
g7
(g8
(I0
tp3558
g10
tp3559
Rp3560
(I1
(I1
tp3561
g17
I00
S'\x99\x99\x99\x99\x99\x99\xb9?'
p3562
tp3563
bsg69
I314288
sg70
I1101393
sg71
I117551
sg72
g7
(g8
(I0
tp3564
g10
tp3565
Rp3566
(I1
(I1
tp3567
g17
I00
S'\x00\x00\x00\x00\x00\x00\x00\x00'
p3568
tp3569
bssS'OVERDYKE JR JERE C'
p3570
(dp3571
g3
g5
sg4
g5
sg6
g7
(g8
(I0
tp3572
g10
tp3573
Rp3574
(I1
(I1
tp3575
g17
I00
S'\x00\x00\x00\x00\x00\x00\x00\x00'
p3576
tp3577
bsg22
g7
(g8
(I0
tp3578
g10
tp3579
Rp3580
(I1
(I1
tp3581
g17
I00
S'\xf4\xa2)\x9b\x1b\xdf\xb5?'
p3582
tp3583
bsg29
I18834
sg30
I00
sg31
g5
sg32
S'jere.overdyke@enron.com'
p3584
sg34
I135836
sg35
g5
sg36
g5
sg37
g5
sg38
g5
sg39
I176
sg40
g93
sg41
g5
sg42
g5
sg43
I7307594
sg44
g5
sg45
g7
(g8
(I0
tp3585
g10
tp3586
Rp3587
(I1
(I1
tp3588
g17
I00
S'\x00\x00\x00\x00\x00\x00\x00\x00'
p3589
tp3590
bsg52
g5
sg53
g93
sg54
I2041016
sg55
g7
(g8
(I0
tp3591
g10
tp3592
Rp3593
(I1
(I1
tp3594
g17
I00
S'\x00\x00\x00\x00\x00\x00\x00\x00'
p3595
tp3596
bsg62
g7
(g8
(I0
tp3597
g10
tp3598
Rp3599
(I1
(I1
tp3600
g17
I00
S'\x00\x00\x00\x00\x00\x00\x00\x00'
p3601
tp3602
bsg69
I94941
sg70
I249787
sg71
I5266578
sg72
g7
(g8
(I0
tp3603
g10
tp3604
Rp3605
(I1
(I1
tp3606
g17
I00
S'\x00\x00\x00\x00\x00\x00\x00\x00'
p3607
tp3608
bssS'PEREIRA PAULO V. FERRAZ'
p3609
(dp3610
g3
g5
sg4
g5
sg6
g7
(g8
(I0
tp3611
g10
tp3612
Rp3613
(I1
(I1
tp3614
g17
I00
S'\x00\x00\x00\x00\x00\x00\x00\x00'
p3615
tp3616
bsg22
g7
(g8
(I0
tp3617
g10
tp3618
Rp3619
(I1
(I1
tp3620
g17
I00
S'\x00\x00\x00\x00\x00\x00\x00\x00'
p3621
tp3622
bsg29
I27942
sg30
I00
sg31
I-101250
sg32
g5
sg34
g5
sg35
g5
sg36
g5
sg37
g5
sg38
g5
sg39
g5
sg40
g93
sg41
I101250
sg42
g5
sg43
g5
sg44
g5
sg45
g7
(g8
(I0
tp3623
g10
tp3624
Rp3625
(I1
(I1
tp3626
g17
I00
S'\x00\x00\x00\x00\x00\x00\x00\x00'
p3627
tp3628
bsg52
g5
sg53
g93
sg54
g5
sg55
g7
(g8
(I0
tp3629
g10
tp3630
Rp3631
(I1
(I1
tp3632
g17
I00
S'\x00\x00\x00\x00\x00\x00\x00\x00'
p3633
tp3634
bsg62
g7
(g8
(I0
tp3635
g10
tp3636
Rp3637
(I1
(I1
tp3638
g17
I00
S'\x00\x00\x00\x00\x00\x00\x00\x00'
p3639
tp3640
bsg69
g5
sg70
I27942
sg71
g5
sg72
g7
(g8
(I0
tp3641
g10
tp3642
Rp3643
(I1
(I1
tp3644
g17
I00
S'\x00\x00\x00\x00\x00\x00\x00\x00'
p3645
tp3646
bssS'STABLER FRANK'
p3647
(dp3648
g3
g5
sg4
g5
sg6
g7
(g8
(I0
tp3649
g10
tp3650
Rp3651
(I1
(I1
tp3652
g17
I00
S'\x00\x00\x00\x00\x00\x00\x00\x00'
p3653
tp3654
bsg22
g7
(g8
(I0
tp3655
g10
tp3656
Rp3657
(I1
(I1
tp3658
g17
I00
S'\xf5\xb4M\x8bD\x96\xcb?'
p3659
tp3660
bsg29
I16514
sg30
I00
sg31
g5
sg32
S'frank.stabler@enron.com'
p3661
sg34
g5
sg35
g5
sg36
g5
sg37
g5
sg38
g5
sg39
I356071
sg40
g93
sg41
g5
sg42
I500000
sg43
I511734
sg44
g5
sg45
g7
(g8
(I0
tp3662
g10
tp3663
Rp3664
(I1
(I1
tp3665
g17
I00
S'\x00\x00\x00\x00\x00\x00\x00\x00'
p3666
tp3667
bsg52
g5
sg53
g93
sg54
I511734
sg55
g7
(g8
(I0
tp3668
g10
tp3669
Rp3670
(I1
(I1
tp3671
g17
I00
S'\x00\x00\x00\x00\x00\x00\x00\x00'
p3672
tp3673
bsg62
g7
(g8
(I0
tp3674
g10
tp3675
Rp3676
(I1
(I1
tp3677
g17
I00
S'\x00\x00\x00\x00\x00\x00\xb0?'
p3678
tp3679
bsg69
I239502
sg70
I1112087
sg71
g5
sg72
g7
(g8
(I0
tp3680
g10
tp3681
Rp3682
(I1
(I1
tp3683
g17
I00
S'\x00\x00\x00\x00\x00\x00\x00\x00'
p3684
tp3685
bssS'SKILLING JEFFREY K'
p3686
(dp3687
g3
I3627
sg4
g5
sg6
g7
(g8
(I0
tp3688
g10
tp3689
Rp3690
(I1
(I1
tp3691
g17
I00
S'hgJ\xaf\xbf8\xa9?'
p3692
tp3693
bsg22
g7
(g8
(I0
tp3694
g10
tp3695
Rp3696
(I1
(I1
tp3697
g17
I00
S'\x00\x00\x00\x00\x00\x00\xf0?'
p3698
tp3699
bsg29
I29336
sg30
I01
sg31
g5
sg32
S'jeff.skilling@enron.com'
p3700
sg34
I1920000
sg35
g5
sg36
I2042
sg37
g5
sg38
I108
sg39
I22122
sg40
F0.2777777777777778
sg41
g5
sg42
I5600000
sg43
I26093672
sg44
I88
sg45
g7
(g8
(I0
tp3701
g10
tp3702
Rp3703
(I1
(I1
tp3704
g17
I00
S'r\x1c\xc7q\x1c\xc7\xd1?'
p3705
tp3706
bsg52
I30
sg53
F0.0242624758753791
sg54
I6843672
sg55
g7
(g8
(I0
tp3707
g10
tp3708
Rp3709
(I1
(I1
tp3710
g17
I00
S'u.\xe2O\xfe\x93\xbc?'
p3711
tp3712
bsg62
g7
(g8
(I0
tp3713
g10
tp3714
Rp3715
(I1
(I1
tp3716
g17
I00
S'ffffff\xe6?'
p3717
tp3718
bsg69
I1111258
sg70
I8682716
sg71
I19250000
sg72
g7
(g8
(I0
tp3719
g10
tp3720
Rp3721
(I1
(I1
tp3722
g17
I00
S'VUUUUU\xc5?'
p3723
tp3724
bssS'BLAKE JR. NORMAN P'
p3725
(dp3726
g3
g5
sg4
g5
sg6
g7
(g8
(I0
tp3727
g10
tp3728
Rp3729
(I1
(I1
tp3730
g17
I00
S'\x00\x00\x00\x00\x00\x00\x00\x00'
p3731
tp3732
bsg22
g7
(g8
(I0
tp3733
g10
tp3734
Rp3735
(I1
(I1
tp3736
g17
I00
S'\x00\x00\x00\x00\x00\x00\x00\x00'
p3737
tp3738
bsg29
I1279
sg30
I00
sg31
I-113784
sg32
g5
sg34
g5
sg35
g5
sg36
g5
sg37
g5
sg38
g5
sg39
g5
sg40
g93
sg41
I113784
sg42
g5
sg43
g5
sg44
g5
sg45
g7
(g8
(I0
tp3739
g10
tp3740
Rp3741
(I1
(I1
tp3742
g17
I00
S'\x00\x00\x00\x00\x00\x00\x00\x00'
p3743
tp3744
bsg52
g5
sg53
g93
sg54
g5
sg55
g7
(g8
(I0
tp3745
g10
tp3746
Rp3747
(I1
(I1
tp3748
g17
I00
S'\x00\x00\x00\x00\x00\x00\x00\x00'
p3749
tp3750
bsg62
g7
(g8
(I0
tp3751
g10
tp3752
Rp3753
(I1
(I1
tp3754
g17
I00
S'\x00\x00\x00\x00\x00\x00\x00\x00'
p3755
tp3756
bsg69
g5
sg70
I1279
sg71
g5
sg72
g7
(g8
(I0
tp3757
g10
tp3758
Rp3759
(I1
(I1
tp3760
g17
I00
S'\x00\x00\x00\x00\x00\x00\x00\x00'
p3761
tp3762
bssS'SHERRICK JEFFREY B'
p3763
(dp3764
g3
I613
sg4
g5
sg6
g7
(g8
(I0
tp3765
g10
tp3766
Rp3767
(I1
(I1
tp3768
g17
I00
S'J\xaf\xbf8\x19D\x9e?'
p3769
tp3770
bsg22
g7
(g8
(I0
tp3771
g10
tp3772
Rp3773
(I1
(I1
tp3774
g17
I00
S'\x00\x00\x00\x00\x00\x00\x00\x00'
p3775
tp3776
bsg29
g5
sg30
I00
sg31
g5
sg32
S'jeffrey.sherrick@enron.com'
p3777
sg34
g5
sg35
g5
sg36
I583
sg37
g5
sg38
I25
sg39
g5
sg40
F0.72
sg41
g5
sg42
g5
sg43
I1832468
sg44
I39
sg45
g7
(g8
(I0
tp3778
g10
tp3779
Rp3780
(I1
(I1
tp3781
g17
I00
S'\n\xd7\xa3p=\n\xe7?'
p3782
tp3783
bsg52
I18
sg53
F0.0636215334420881
sg54
I405999
sg55
g7
(g8
(I0
tp3784
g10
tp3785
Rp3786
(I1
(I1
tp3787
g17
I00
S'p\x16\xc9\xeb\x08\xbc\xd2?'
p3788
tp3789
bsg62
g7
(g8
(I0
tp3790
g10
tp3791
Rp3792
(I1
(I1
tp3793
g17
I00
S'\x00\x00\x00\x00\x00\x00\x00\x00'
p3794
tp3795
bsg69
g5
sg70
g5
sg71
I1426469
sg72
g7
(g8
(I0
tp3796
g10
tp3797
Rp3798
(I1
(I1
tp3799
g17
I00
S'\xe9\xa2\x8b.\xba\xe8\xb2?'
p3800
tp3801
bssS'PRENTICE JAMES'
p3802
(dp3803
g3
g5
sg4
I564348
sg6
g7
(g8
(I0
tp3804
g10
tp3805
Rp3806
(I1
(I1
tp3807
g17
I00
S'\x00\x00\x00\x00\x00\x00\x00\x00'
p3808
tp3809
bsg22
g7
(g8
(I0
tp3810
g10
tp3811
Rp3812
(I1
(I1
tp3813
g17
I00
S'\x00\x00\x00\x00\x00\x00\x00\x00'
p3814
tp3815
bsg29
g5
sg30
I00
sg31
g5
sg32
S'james.prentice@enron.com'
p3816
sg34
g5
sg35
g5
sg36
g5
sg37
g5
sg38
g5
sg39
g5
sg40
g93
sg41
g5
sg42
g5
sg43
I1095040
sg44
g5
sg45
g7
(g8
(I0
tp3817
g10
tp3818
Rp3819
(I1
(I1
tp3820
g17
I00
S'\x00\x00\x00\x00\x00\x00\x00\x00'
p3821
tp3822
bsg52
g5
sg53
g93
sg54
I208809
sg55
g7
(g8
(I0
tp3823
g10
tp3824
Rp3825
(I1
(I1
tp3826
g17
I00
S'\x00\x00\x00\x00\x00\x00\x00\x00'
p3827
tp3828
bsg62
g7
(g8
(I0
tp3829
g10
tp3830
Rp3831
(I1
(I1
tp3832
g17
I00
S'\x00\x00\x00\x00\x00\x00\x00\x00'
p3833
tp3834
bsg69
g5
sg70
I564348
sg71
I886231
sg72
g7
(g8
(I0
tp3835
g10
tp3836
Rp3837
(I1
(I1
tp3838
g17
I00
S'\x00\x00\x00\x00\x00\x00\x00\x00'
p3839
tp3840
bssS'GRAY RODNEY'
p3841
(dp3842
g3
g5
sg4
I93585
sg6
g7
(g8
(I0
tp3843
g10
tp3844
Rp3845
(I1
(I1
tp3846
g17
I00
S'\x00\x00\x00\x00\x00\x00\x00\x00'
p3847
tp3848
bsg22
g7
(g8
(I0
tp3849
g10
tp3850
Rp3851
(I1
(I1
tp3852
g17
I00
S'\x0e\x1a\x0c>\xdfax?'
p3853
tp3854
bsg29
g5
sg30
I00
sg31
g5
sg32
g5
sg34
I365625
sg35
g5
sg36
g5
sg37
g5
sg38
g5
sg39
I680833
sg40
g93
sg41
g5
sg42
g5
sg43
g5
sg44
g5
sg45
g7
(g8
(I0
tp3855
g10
tp3856
Rp3857
(I1
(I1
tp3858
g17
I00
S'\x00\x00\x00\x00\x00\x00\x00\x00'
p3859
tp3860
bsg52
g5
sg53
g93
sg54
g5
sg55
g7
(g8
(I0
tp3861
g10
tp3862
Rp3863
(I1
(I1
tp3864
g17
I00
S'\x00\x00\x00\x00\x00\x00\x00\x00'
p3865
tp3866
bsg62
g7
(g8
(I0
tp3867
g10
tp3868
Rp3869
(I1
(I1
tp3870
g17
I00
S'\x00\x00\x00\x00\x00\x00\x00\x00'
p3871
tp3872
bsg69
I6615
sg70
I1146658
sg71
g5
sg72
g7
(g8
(I0
tp3873
g10
tp3874
Rp3875
(I1
(I1
tp3876
g17
I00
S'\x00\x00\x00\x00\x00\x00\x00\x00'
p3877
tp3878
bssS'PICKERING MARK R'
p3879
(dp3880
g3
I898
sg4
g5
sg6
g7
(g8
(I0
tp3881
g10
tp3882
Rp3883
(I1
(I1
tp3884
g17
I00
S'\x00\x00\x00\x00\x00\x00\x00\x00'
p3885
tp3886
bsg22
g7
(g8
(I0
tp3887
g10
tp3888
Rp3889
(I1
(I1
tp3890
g17
I00
S'\r\xf28\x84\xd1\xdc\xe2?'
p3891
tp3892
bsg29
I31653
sg30
I00
sg31
g5
sg32
S'mark.pickering@enron.com'
p3893
sg34
g5
sg35
g5
sg36
I728
sg37
I400000
sg38
I67
sg39
g5
sg40
F0.0
sg41
g5
sg42
I300000
sg43
I28798
sg44
I7
sg45
g7
(g8
(I0
tp3894
g10
tp3895
Rp3896
(I1
(I1
tp3897
g17
I00
S'\x00\x00\x00\x00\x00\x00\x00\x00'
p3898
tp3899
bsg52
I0
sg53
F0.0077951002227171495
sg54
g5
sg55
g7
(g8
(I0
tp3900
g10
tp3901
Rp3902
(I1
(I1
tp3903
g17
I00
S'\xba\xb2=\xfe\xfe\\\xa2?'
p3904
tp3905
bsg62
g7
(g8
(I0
tp3906
g10
tp3907
Rp3908
(I1
(I1
tp3909
g17
I00
S'333333\xa3?'
p3910
tp3911
bsg69
I655037
sg70
I1386690
sg71
I28798
sg72
g7
(g8
(I0
tp3912
g10
tp3913
Rp3914
(I1
(I1
tp3915
g17
I00
S"'\x9bl\xb2\xc9&\x8b?"
p3916
tp3917
bssS'THE TRAVEL AGENCY IN THE PARK'
p3918
(dp3919
g3
g5
sg4
g5
sg6
g7
(g8
(I0
tp3920
g10
tp3921
Rp3922
(I1
(I1
tp3923
g17
I00
S'\x00\x00\x00\x00\x00\x00\x00\x00'
p3924
tp3925
bsg22
g7
(g8
(I0
tp3926
g10
tp3927
Rp3928
(I1
(I1
tp3929
g17
I00
S'\x00\x00\x00\x00\x00\x00\x00\x00'
p3930
tp3931
bsg29
g5
sg30
I00
sg31
g5
sg32
g5
sg34
g5
sg35
g5
sg36
g5
sg37
g5
sg38
g5
sg39
I362096
sg40
g93
sg41
g5
sg42
g5
sg43
g5
sg44
g5
sg45
g7
(g8
(I0
tp3932
g10
tp3933
Rp3934
(I1
(I1
tp3935
g17
I00
S'\x00\x00\x00\x00\x00\x00\x00\x00'
p3936
tp3937
bsg52
g5
sg53
g93
sg54
g5
sg55
g7
(g8
(I0
tp3938
g10
tp3939
Rp3940
(I1
(I1
tp3941
g17
I00
S'\x00\x00\x00\x00\x00\x00\x00\x00'
p3942
tp3943
bsg62
g7
(g8
(I0
tp3944
g10
tp3945
Rp3946
(I1
(I1
tp3947
g17
I00
S'\x00\x00\x00\x00\x00\x00\x00\x00'
p3948
tp3949
bsg69
g5
sg70
I362096
sg71
g5
sg72
g7
(g8
(I0
tp3950
g10
tp3951
Rp3952
(I1
(I1
tp3953
g17
I00
S'\x00\x00\x00\x00\x00\x00\x00\x00'
p3954
tp3955
bssS'NOLES JAMES L'
p3956
(dp3957
g3
g5
sg4
I774401
sg6
g7
(g8
(I0
tp3958
g10
tp3959
Rp3960
(I1
(I1
tp3961
g17
I00
S'\x00\x00\x00\x00\x00\x00\x00\x00'
p3962
tp3963
bsg22
g7
(g8
(I0
tp3964
g10
tp3965
Rp3966
(I1
(I1
tp3967
g17
I00
S'\x00\x00\x00\x00\x00\x00\x00\x00'
p3968
tp3969
bsg29
g5
sg30
I00
sg31
g5
sg32
g5
sg34
g5
sg35
I-94556
sg36
g5
sg37
g5
sg38
g5
sg39
g5
sg40
g93
sg41
g5
sg42
g5
sg43
I368705
sg44
g5
sg45
g7
(g8
(I0
tp3970
g10
tp3971
Rp3972
(I1
(I1
tp3973
g17
I00
S'\x00\x00\x00\x00\x00\x00\x00\x00'
p3974
tp3975
bsg52
g5
sg53
g93
sg54
I463261
sg55
g7
(g8
(I0
tp3976
g10
tp3977
Rp3978
(I1
(I1
tp3979
g17
I00
S'\x00\x00\x00\x00\x00\x00\x00\x00'
p3980
tp3981
bsg62
g7
(g8
(I0
tp3982
g10
tp3983
Rp3984
(I1
(I1
tp3985
g17
I00
S'\x00\x00\x00\x00\x00\x00\x00\x00'
p3986
tp3987
bsg69
g5
sg70
I774401
sg71
g5
sg72
g7
(g8
(I0
tp3988
g10
tp3989
Rp3990
(I1
(I1
tp3991
g17
I00
S'\x00\x00\x00\x00\x00\x00\x00\x00'
p3992
tp3993
bssS'KEAN STEVEN J'
p3994
(dp3995
g3
I12754
sg4
g5
sg6
g7
(g8
(I0
tp3996
g10
tp3997
Rp3998
(I1
(I1
tp3999
g17
I00
S'\xc6\xc9 \xf2\xc0U\xe4?'
p4000
tp4001
bsg22
g7
(g8
(I0
tp4002
g10
tp4003
Rp4004
(I1
(I1
tp4005
g17
I00
S'\x9c\x92\x94\x16kI\xd7?'
p4006
tp4007
bsg29
I41953
sg30
I00
sg31
g5
sg32
S'steven.kean@enron.com'
p4008
sg34
I300000
sg35
g5
sg36
I3639
sg37
g5
sg38
I6759
sg39
I1231
sg40
F0.05725699067909454
sg41
g5
sg42
I1000000
sg43
I6153642
sg44
I140
sg45
g7
(g8
(I0
tp4009
g10
tp4010
Rp4011
(I1
(I1
tp4012
g17
I00
S'\xc4@\xde\xcc\xc9P\xad?'
p4013
tp4014
bsg52
I387
sg53
F0.010976948408342482
sg54
I4131594
sg55
g7
(g8
(I0
tp4015
g10
tp4016
Rp4017
(I1
(I1
tp4018
g17
I00
S'\x10\x01\x8f\x12\xe0\xdb\xa9?'
p4019
tp4020
bsg62
g7
(g8
(I0
tp4021
g10
tp4022
Rp4023
(I1
(I1
tp4024
g17
I00
S'\x00\x00\x00\x00\x00\x00\xc0?'
p4025
tp4026
bsg69
I404338
sg70
I1747522
sg71
I2022048
sg72
g7
(g8
(I0
tp4027
g10
tp4028
Rp4029
(I1
(I1
tp4030
g17
I00
S'\xf8\xe0\x83\x0f>\xf8\xd0?'
p4031
tp4032
bssS'FOWLER PEGGY'
p4033
(dp4034
g3
I517
sg4
g5
sg6
g7
(g8
(I0
tp4035
g10
tp4036
Rp4037
(I1
(I1
tp4038
g17
I00
S'\x00\x00\x00\x00\x00\x00\x00\x00'
p4039
tp4040
bsg22
g7
(g8
(I0
tp4041
g10
tp4042
Rp4043
(I1
(I1
tp4044
g17
I00
S'\x00\x00\x00\x00\x00\x00\x00\x00'
p4045
tp4046
bsg29
g5
sg30
I00
sg31
g5
sg32
S'kulvinder.fowler@enron.com'
p4047
sg34
g5
sg35
g5
sg36
I10
sg37
g5
sg38
I36
sg39
g5
sg40
F0.0
sg41
g5
sg42
g5
sg43
I1884748
sg44
I0
sg45
g7
(g8
(I0
tp4048
g10
tp4049
Rp4050
(I1
(I1
tp4051
g17
I00
S'\x00\x00\x00\x00\x00\x00\x00\x00'
p4052
tp4053
bsg52
I0
sg53
F0.0
sg54
I560170
sg55
g7
(g8
(I0
tp4054
g10
tp4055
Rp4056
(I1
(I1
tp4057
g17
I00
S'\x00\x00\x00\x00\x00\x00\x00\x00'
p4058
tp4059
bsg62
g7
(g8
(I0
tp4060
g10
tp4061
Rp4062
(I1
(I1
tp4063
g17
I00
S'\x00\x00\x00\x00\x00\x00\x00\x00'
p4064
tp4065
bsg69
g5
sg70
g5
sg71
I1324578
sg72
g7
(g8
(I0
tp4066
g10
tp4067
Rp4068
(I1
(I1
tp4069
g17
I00
S'\x00\x00\x00\x00\x00\x00\x00\x00'
p4070
tp4071
bssS'WASAFF GEORGE'
p4072
(dp4073
g3
I400
sg4
I831299
sg6
g7
(g8
(I0
tp4074
g10
tp4075
Rp4076
(I1
(I1
tp4077
g17
I00
S'\xc8\xa4x\x81L\x8a\x87?'
p4078
tp4079
bsg22
g7
(g8
(I0
tp4080
g10
tp4081
Rp4082
(I1
(I1
tp4083
g17
I00
S'\x0cJ\x84\x9c\x94\xf2\xcd?'
p4084
tp4085
bsg29
g5
sg30
I00
sg31
I-583325
sg32
S'george.wasaff@enron.com'
p4086
sg34
I200000
sg35
g5
sg36
I337
sg37
g5
sg38
I30
sg39
I1425
sg40
F0.23333333333333334
sg41
g5
sg42
I325000
sg43
I2056427
sg44
I22
sg45
g7
(g8
(I0
tp4087
g10
tp4088
Rp4089
(I1
(I1
tp4090
g17
I00
S'\xde\xdd\xdd\xdd\xdd\xdd\xcd?'
p4091
tp4092
bsg52
I7
sg53
F0.055
sg54
I388167
sg55
g7
(g8
(I0
tp4093
g10
tp4094
Rp4095
(I1
(I1
tp4096
g17
I00
S'\x0c\x9f\xcaR\x1c2\xd0?'
p4097
tp4098
bsg62
g7
(g8
(I0
tp4099
g10
tp4100
Rp4101
(I1
(I1
tp4102
g17
I00
S'\xcd\xcc\xcc\xcc\xcc\xcc\xa4?'
p4103
tp4104
bsg69
I259996
sg70
I1034395
sg71
I1668260
sg72
g7
(g8
(I0
tp4105
g10
tp4106
Rp4107
(I1
(I1
tp4108
g17
I00
S'VUUUUU\xa5?'
p4109
tp4110
bssS'WHITE JR THOMAS E'
p4111
(dp4112
g3
g5
sg4
g5
sg6
g7
(g8
(I0
tp4113
g10
tp4114
Rp4115
(I1
(I1
tp4116
g17
I00
S'\x00\x00\x00\x00\x00\x00\x00\x00'
p4117
tp4118
bsg22
g7
(g8
(I0
tp4119
g10
tp4120
Rp4121
(I1
(I1
tp4122
g17
I00
S'\x97\xa2\r>\xbeI\xd2?'
p4123
tp4124
bsg29
I81353
sg30
I00
sg31
g5
sg32
S'thomas.white@enron.com'
p4125
sg34
g5
sg35
g5
sg36
g5
sg37
g5
sg38
g5
sg39
I1085463
sg40
g93
sg41
g5
sg42
I450000
sg43
I15144123
sg44
g5
sg45
g7
(g8
(I0
tp4126
g10
tp4127
Rp4128
(I1
(I1
tp4129
g17
I00
S'\x00\x00\x00\x00\x00\x00\x00\x00'
p4130
tp4131
bsg52
g5
sg53
g93
sg54
I13847074
sg55
g7
(g8
(I0
tp4132
g10
tp4133
Rp4134
(I1
(I1
tp4135
g17
I00
S'\x00\x00\x00\x00\x00\x00\x00\x00'
p4136
tp4137
bsg62
g7
(g8
(I0
tp4138
g10
tp4139
Rp4140
(I1
(I1
tp4141
g17
I00
S'\xcc\xcc\xcc\xcc\xcc\xcc\xac?'
p4142
tp4143
bsg69
I317543
sg70
I1934359
sg71
I1297049
sg72
g7
(g8
(I0
tp4144
g10
tp4145
Rp4146
(I1
(I1
tp4147
g17
I00
S'\x00\x00\x00\x00\x00\x00\x00\x00'
p4148
tp4149
bssS'CHRISTODOULOU DIOMEDES'
p4150
(dp4151
g3
g5
sg4
g5
sg6
g7
(g8
(I0
tp4152
g10
tp4153
Rp4154
(I1
(I1
tp4155
g17
I00
S'\x00\x00\x00\x00\x00\x00\x00\x00'
p4156
tp4157
bsg22
g7
(g8
(I0
tp4158
g10
tp4159
Rp4160
(I1
(I1
tp4161
g17
I00
S'\x00\x00\x00\x00\x00\x00\x00\x00'
p4162
tp4163
bsg29
g5
sg30
I00
sg31
g5
sg32
S'diomedes.christodoulou@enron.com'
p4164
sg34
g5
sg35
g5
sg36
g5
sg37
g5
sg38
g5
sg39
g5
sg40
g93
sg41
g5
sg42
g5
sg43
I6077885
sg44
g5
sg45
g7
(g8
(I0
tp4165
g10
tp4166
Rp4167
(I1
(I1
tp4168
g17
I00
S'\x00\x00\x00\x00\x00\x00\x00\x00'
p4169
tp4170
bsg52
g5
sg53
g93
sg54
I950730
sg55
g7
(g8
(I0
tp4171
g10
tp4172
Rp4173
(I1
(I1
tp4174
g17
I00
S'\x00\x00\x00\x00\x00\x00\x00\x00'
p4175
tp4176
bsg62
g7
(g8
(I0
tp4177
g10
tp4178
Rp4179
(I1
(I1
tp4180
g17
I00
S'\x00\x00\x00\x00\x00\x00\x00\x00'
p4181
tp4182
bsg69
g5
sg70
g5
sg71
I5127155
sg72
g7
(g8
(I0
tp4183
g10
tp4184
Rp4185
(I1
(I1
tp4186
g17
I00
S'\x00\x00\x00\x00\x00\x00\x00\x00'
p4187
tp4188
bssS'ALLEN PHILLIP K'
p4189
(dp4190
g3
I2902
sg4
I2869717
sg6
g7
(g8
(I0
tp4191
g10
tp4192
Rp4193
(I1
(I1
tp4194
g17
I00
S'\xb1\x9a\x90\xa8\xcfR\xbb?'
p4195
tp4196
bsg22
g7
(g8
(I0
tp4197
g10
tp4198
Rp4199
(I1
(I1
tp4200
g17
I00
S';\xb2\xe6\xa7\x1bC\xc7?'
p4201
tp4202
bsg29
I13868
sg30
I00
sg31
I-3081055
sg32
S'phillip.allen@enron.com'
p4203
sg34
I304805
sg35
I-126027
sg36
I1407
sg37
g5
sg38
I2195
sg39
I152
sg40
F0.029612756264236904
sg41
g5
sg42
I4175000
sg43
I1729541
sg44
I47
sg45
g7
(g8
(I0
tp4204
g10
tp4205
Rp4206
(I1
(I1
tp4207
g17
I00
S'\xa9\x19\xccn\xceR\x9e?'
p4208
tp4209
bsg52
I65
sg53
F0.016195727084769126
sg54
I126027
sg55
g7
(g8
(I0
tp4210
g10
tp4211
Rp4212
(I1
(I1
tp4213
g17
I00
S'\xf0"\xaeo\x95\x13\xb3?'
p4214
tp4215
bsg62
g7
(g8
(I0
tp4216
g10
tp4217
Rp4218
(I1
(I1
tp4219
g17
I00
S'33333\xb3\xe0?'
p4220
tp4221
bsg69
I201955
sg70
I4484442
sg71
I1729541
sg72
g7
(g8
(I0
tp4222
g10
tp4223
Rp4224
(I1
(I1
tp4225
g17
I00
S'\xca&\x9bl\xb2\xc9\xb6?'
p4226
tp4227
bssS'SHARP VICTORIA T'
p4228
(dp4229
g3
I3136
sg4
I187469
sg6
g7
(g8
(I0
tp4230
g10
tp4231
Rp4232
(I1
(I1
tp4233
g17
I00
S'\x87\x1f\xd5%f-\x84?'
p4234
tp4235
bsg22
g7
(g8
(I0
tp4236
g10
tp4237
Rp4238
(I1
(I1
tp4239
g17
I00
S";\x96\xc6\xee'\x95\xcc?"
p4240
tp4241
bsg29
I116337
sg30
I00
sg31
g5
sg32
S'vicki.sharp@enron.com'
p4242
sg34
I422158
sg35
g5
sg36
I2477
sg37
g5
sg38
I136
sg39
I2401
sg40
F0.04411764705882353
sg41
g5
sg42
I600000
sg43
I494136
sg44
I24
sg45
g7
(g8
(I0
tp4243
g10
tp4244
Rp4245
(I1
(I1
tp4246
g17
I00
S'\x97\x96\x96\x96\x96\x96\xa6?'
p4247
tp4248
bsg52
I6
sg53
F0.007653061224489796
sg54
I213063
sg55
g7
(g8
(I0
tp4249
g10
tp4250
Rp4251
(I1
(I1
tp4252
g17
I00
S'\\9\x04&V\x07\xa2?'
p4253
tp4254
bsg62
g7
(g8
(I0
tp4255
g10
tp4256
Rp4257
(I1
(I1
tp4258
g17
I00
S'333333\xb3?'
p4259
tp4260
bsg69
I248146
sg70
I1576511
sg71
I281073
sg72
g7
(g8
(I0
tp4261
g10
tp4262
Rp4263
(I1
(I1
tp4264
g17
I00
S'F\x17]t\xd1E\xa7?'
p4265
tp4266
bssS'JAEDICKE ROBERT'
p4267
(dp4268
g3
g5
sg4
g5
sg6
g7
(g8
(I0
tp4269
g10
tp4270
Rp4271
(I1
(I1
tp4272
g17
I00
S'\x00\x00\x00\x00\x00\x00\x00\x00'
p4273
tp4274
bsg22
g7
(g8
(I0
tp4275
g10
tp4276
Rp4277
(I1
(I1
tp4278
g17
I00
S'\x00\x00\x00\x00\x00\x00\x00\x00'
p4279
tp4280
bsg29
g5
sg30
I00
sg31
I-25000
sg32
g5
sg34
g5
sg35
I-44093
sg36
g5
sg37
g5
sg38
g5
sg39
g5
sg40
g93
sg41
I108750
sg42
g5
sg43
I431750
sg44
g5
sg45
g7
(g8
(I0
tp4281
g10
tp4282
Rp4283
(I1
(I1
tp4284
g17
I00
S'\x00\x00\x00\x00\x00\x00\x00\x00'
p4285
tp4286
bsg52
g5
sg53
g93
sg54
I44093
sg55
g7
(g8
(I0
tp4287
g10
tp4288
Rp4289
(I1
(I1
tp4290
g17
I00
S'\x00\x00\x00\x00\x00\x00\x00\x00'
p4291
tp4292
bsg62
g7
(g8
(I0
tp4293
g10
tp4294
Rp4295
(I1
(I1
tp4296
g17
I00
S'\x00\x00\x00\x00\x00\x00\x00\x00'
p4297
tp4298
bsg69
g5
sg70
I83750
sg71
I431750
sg72
g7
(g8
(I0
tp4299
g10
tp4300
Rp4301
(I1
(I1
tp4302
g17
I00
S'\x00\x00\x00\x00\x00\x00\x00\x00'
p4303
tp4304
bssS'WINOKUR JR. HERBERT S'
p4305
(dp4306
g3
g5
sg4
g5
sg6
g7
(g8
(I0
tp4307
g10
tp4308
Rp4309
(I1
(I1
tp4310
g17
I00
S'\x00\x00\x00\x00\x00\x00\x00\x00'
p4311
tp4312
bsg22
g7
(g8
(I0
tp4313
g10
tp4314
Rp4315
(I1
(I1
tp4316
g17
I00
S'\x00\x00\x00\x00\x00\x00\x00\x00'
p4317
tp4318
bsg29
I1413
sg30
I00
sg31
I-25000
sg32
g5
sg34
g5
sg35
g5
sg36
g5
sg37
g5
sg38
g5
sg39
g5
sg40
g93
sg41
I108579
sg42
g5
sg43
g5
sg44
g5
sg45
g7
(g8
(I0
tp4319
g10
tp4320
Rp4321
(I1
(I1
tp4322
g17
I00
S'\x00\x00\x00\x00\x00\x00\x00\x00'
p4323
tp4324
bsg52
g5
sg53
g93
sg54
g5
sg55
g7
(g8
(I0
tp4325
g10
tp4326
Rp4327
(I1
(I1
tp4328
g17
I00
S'\x00\x00\x00\x00\x00\x00\x00\x00'
p4329
tp4330
bsg62
g7
(g8
(I0
tp4331
g10
tp4332
Rp4333
(I1
(I1
tp4334
g17
I00
S'\x00\x00\x00\x00\x00\x00\x00\x00'
p4335
tp4336
bsg69
g5
sg70
I84992
sg71
g5
sg72
g7
(g8
(I0
tp4337
g10
tp4338
Rp4339
(I1
(I1
tp4340
g17
I00
S'\x00\x00\x00\x00\x00\x00\x00\x00'
p4341
tp4342
bssS'BROWN MICHAEL'
p4343
(dp4344
g3
I1486
sg4
g5
sg6
g7
(g8
(I0
tp4345
g10
tp4346
Rp4347
(I1
(I1
tp4348
g17
I00
S'\t*\x1c\xdd2\xe7Z?'
p4349
tp4350
bsg22
g7
(g8
(I0
tp4351
g10
tp4352
Rp4353
(I1
(I1
tp4354
g17
I00
S'\x00\x00\x00\x00\x00\x00\x00\x00'
p4355
tp4356
bsg29
I49288
sg30
I00
sg31
g5
sg32
S'michael.brown@enron.com'
p4357
sg34
g5
sg35
g5
sg36
I761
sg37
g5
sg38
I41
sg39
g5
sg40
F0.024390243902439025
sg41
g5
sg42
g5
sg43
g5
sg44
I13
sg45
g7
(g8
(I0
tp4358
g10
tp4359
Rp4360
(I1
(I1
tp4361
g17
I00
S'\xfa\x18\x9c\x8f\xc1\xf9\x98?'
p4362
tp4363
bsg52
I1
sg53
F0.008748317631224764
sg54
g5
sg55
g7
(g8
(I0
tp4364
g10
tp4365
Rp4366
(I1
(I1
tp4367
g17
I00
S'M\x8b\xd6~\xda\x9b\xa4?'
p4368
tp4369
bsg62
g7
(g8
(I0
tp4370
g10
tp4371
Rp4372
(I1
(I1
tp4373
g17
I00
S'\x00\x00\x00\x00\x00\x00\x00\x00'
p4374
tp4375
bsg69
g5
sg70
I49288
sg71
g5
sg72
g7
(g8
(I0
tp4376
g10
tp4377
Rp4378
(I1
(I1
tp4379
g17
I00
S'6\xd9d\x93M6\x99?'
p4380
tp4381
bssS'BADUM JAMES P'
p4382
(dp4383
g3
g5
sg4
I178980
sg6
g7
(g8
(I0
tp4384
g10
tp4385
Rp4386
(I1
(I1
tp4387
g17
I00
S'\x00\x00\x00\x00\x00\x00\x00\x00'
p4388
tp4389
bsg22
g7
(g8
(I0
tp4390
g10
tp4391
Rp4392
(I1
(I1
tp4393
g17
I00
S'\x00\x00\x00\x00\x00\x00\x00\x00'
p4394
tp4395
bsg29
I3486
sg30
I00
sg31
g5
sg32
g5
sg34
g5
sg35
g5
sg36
g5
sg37
g5
sg38
g5
sg39
g5
sg40
g93
sg41
g5
sg42
g5
sg43
I257817
sg44
g5
sg45
g7
(g8
(I0
tp4396
g10
tp4397
Rp4398
(I1
(I1
tp4399
g17
I00
S'\x00\x00\x00\x00\x00\x00\x00\x00'
p4400
tp4401
bsg52
g5
sg53
g93
sg54
g5
sg55
g7
(g8
(I0
tp4402
g10
tp4403
Rp4404
(I1
(I1
tp4405
g17
I00
S'\x00\x00\x00\x00\x00\x00\x00\x00'
p4406
tp4407
bsg62
g7
(g8
(I0
tp4408
g10
tp4409
Rp4410
(I1
(I1
tp4411
g17
I00
S'\x00\x00\x00\x00\x00\x00\x00\x00'
p4412
tp4413
bsg69
g5
sg70
I182466
sg71
I257817
sg72
g7
(g8
(I0
tp4414
g10
tp4415
Rp4416
(I1
(I1
tp4417
g17
I00
S'\x00\x00\x00\x00\x00\x00\x00\x00'
p4418
tp4419
bssS'HUGHES JAMES A'
p4420
(dp4421
g3
I719
sg4
g5
sg6
g7
(g8
(I0
tp4422
g10
tp4423
Rp4424
(I1
(I1
tp4425
g17
I00
S'F\x9a1\xca\x7f\xd0\x80?'
p4426
tp4427
bsg22
g7
(g8
(I0
tp4428
g10
tp4429
Rp4430
(I1
(I1
tp4431
g17
I00
S'\x00\x00\x00\x00\x00\x00\x00\x00'
p4432
tp4433
bsg29
g5
sg30
I00
sg31
g5
sg32
S'james.hughes@enron.com'
p4434
sg34
g5
sg35
g5
sg36
I589
sg37
g5
sg38
I34
sg39
g5
sg40
F0.14705882352941177
sg41
g5
sg42
g5
sg43
I1118394
sg44
I35
sg45
g7
(g8
(I0
tp4435
g10
tp4436
Rp4437
(I1
(I1
tp4438
g17
I00
S'\xd3\xd2\xd2\xd2\xd2\xd2\xc2?'
p4439
tp4440
bsg52
I5
sg53
F0.048678720445062586
sg54
I363428
sg55
g7
(g8
(I0
tp4441
g10
tp4442
Rp4443
(I1
(I1
tp4444
g17
I00
S'\xba>\xa8?-\xab\xcc?'
p4445
tp4446
bsg62
g7
(g8
(I0
tp4447
g10
tp4448
Rp4449
(I1
(I1
tp4450
g17
I00
S'\x00\x00\x00\x00\x00\x00\x00\x00'
p4451
tp4452
bsg69
g5
sg70
g5
sg71
I754966
sg72
g7
(g8
(I0
tp4453
g10
tp4454
Rp4455
(I1
(I1
tp4456
g17
I00
S'\xf8\xe0\x83\x0f>\xf8\xb0?'
p4457
tp4458
bssS'REYNOLDS LAWRENCE'
p4459
(dp4460
g3
g5
sg4
I51365
sg6
g7
(g8
(I0
tp4461
g10
tp4462
Rp4463
(I1
(I1
tp4464
g17
I00
S'\x00\x00\x00\x00\x00\x00\x00\x00'
p4465
tp4466
bsg22
g7
(g8
(I0
tp4467
g10
tp4468
Rp4469
(I1
(I1
tp4470
g17
I00
S'\x85x\xe9\xc9\x99\x99\xb1?'
p4471
tp4472
bsg29
I8409
sg30
I00
sg31
I-200000
sg32
g5
sg34
I156250
sg35
I-140264
sg36
g5
sg37
g5
sg38
g5
sg39
I202052
sg40
g93
sg41
g5
sg42
I100000
sg43
I4221891
sg44
g5
sg45
g7
(g8
(I0
tp4473
g10
tp4474
Rp4475
(I1
(I1
tp4476
g17
I00
S'\x00\x00\x00\x00\x00\x00\x00\x00'
p4477
tp4478
bsg52
g5
sg53
g93
sg54
I201483
sg55
g7
(g8
(I0
tp4479
g10
tp4480
Rp4481
(I1
(I1
tp4482
g17
I00
S'\x00\x00\x00\x00\x00\x00\x00\x00'
p4483
tp4484
bsg62
g7
(g8
(I0
tp4485
g10
tp4486
Rp4487
(I1
(I1
tp4488
g17
I00
S'\x99\x99\x99\x99\x99\x99\x89?'
p4489
tp4490
bsg69
I76399
sg70
I394475
sg71
I4160672
sg72
g7
(g8
(I0
tp4491
g10
tp4492
Rp4493
(I1
(I1
tp4494
g17
I00
S'\x00\x00\x00\x00\x00\x00\x00\x00'
p4495
tp4496
bssS'DIMICHELE RICHARD G'
p4497
(dp4498
g3
g5
sg4
g5
sg6
g7
(g8
(I0
tp4499
g10
tp4500
Rp4501
(I1
(I1
tp4502
g17
I00
S'\x00\x00\x00\x00\x00\x00\x00\x00'
p4503
tp4504
bsg22
g7
(g8
(I0
tp4505
g10
tp4506
Rp4507
(I1
(I1
tp4508
g17
I00
S'\xd9\xfe$\xb8\xe8D\xce?'
p4509
tp4510
bsg29
I35812
sg30
I00
sg31
g5
sg32
S'richard.dimichele@enron.com'
p4511
sg34
I694862
sg35
g5
sg36
g5
sg37
g5
sg38
g5
sg39
I374689
sg40
g93
sg41
g5
sg42
I1000000
sg43
I8317782
sg44
g5
sg45
g7
(g8
(I0
tp4512
g10
tp4513
Rp4514
(I1
(I1
tp4515
g17
I00
S'\x00\x00\x00\x00\x00\x00\x00\x00'
p4516
tp4517
bsg52
g5
sg53
g93
sg54
I126027
sg55
g7
(g8
(I0
tp4518
g10
tp4519
Rp4520
(I1
(I1
tp4521
g17
I00
S'\x00\x00\x00\x00\x00\x00\x00\x00'
p4522
tp4523
bsg62
g7
(g8
(I0
tp4524
g10
tp4525
Rp4526
(I1
(I1
tp4527
g17
I00
S'\x00\x00\x00\x00\x00\x00\xc0?'
p4528
tp4529
bsg69
I262788
sg70
I2368151
sg71
I8191755
sg72
g7
(g8
(I0
tp4530
g10
tp4531
Rp4532
(I1
(I1
tp4533
g17
I00
S'\x00\x00\x00\x00\x00\x00\x00\x00'
p4534
tp4535
bssS'BHATNAGAR SANJAY'
p4536
(dp4537
g3
I523
sg4
g5
sg6
g7
(g8
(I0
tp4538
g10
tp4539
Rp4540
(I1
(I1
tp4541
g17
I00
S'\t*\x1c\xdd2\xe7Z?'
p4542
tp4543
bsg22
g7
(g8
(I0
tp4544
g10
tp4545
Rp4546
(I1
(I1
tp4547
g17
I00
S'\x00\x00\x00\x00\x00\x00\x00\x00'
p4548
tp4549
bsg29
g5
sg30
I00
sg31
g5
sg32
S'sanjay.bhatnagar@enron.com'
p4550
sg34
g5
sg35
I15456290
sg36
I463
sg37
g5
sg38
I29
sg39
I137864
sg40
F0.034482758620689655
sg41
I137864
sg42
g5
sS'total_stock_value'
p4551
S'NaN'
p4552
sg44
I0
sg45
g7
(g8
(I0
tp4553
g10
tp4554
Rp4555
(I1
(I1
tp4556
g17
I00
S'\x96{\x1aa\xb9\xa7\xa1?'
p4557
tp4558
bsg52
I1
sg53
F0.0
sg54
I-2604490
sg55
g7
(g8
(I0
tp4559
g10
tp4560
Rp4561
(I1
(I1
tp4562
g17
I00
S'\x00\x00\x00\x00\x00\x00\x00\x00'
p4563
tp4564
bsg62
g7
(g8
(I0
tp4565
g10
tp4566
Rp4567
(I1
(I1
tp4568
g17
I00
S'\x00\x00\x00\x00\x00\x00\x00\x00'
p4569
tp4570
bsg69
g5
sg70
I15456290
sg71
I2604490
sg72
g7
(g8
(I0
tp4571
g10
tp4572
Rp4573
(I1
(I1
tp4574
g17
I00
S'\x00\x00\x00\x00\x00\x00\x00\x00'
p4575
tp4576
bssS'CARTER REBECCA C'
p4577
(dp4578
g3
I312
sg4
g5
sg6
g7
(g8
(I0
tp4579
g10
tp4580
Rp4581
(I1
(I1
tp4582
g17
I00
S'\xc8\xa4x\x81L\x8a\x87?'
p4583
tp4584
bsg22
g7
(g8
(I0
tp4585
g10
tp4586
Rp4587
(I1
(I1
tp4588
g17
I00
S'\x8d@i~\n(\xce?'
p4589
tp4590
bsg29
g5
sg30
I00
sg31
I-159792
sg32
S'rebecca.carter@enron.com'
p4591
sg34
I75000
sg35
I-307301
sg36
I196
sg37
g5
sg38
I15
sg39
I540
sg40
F0.4666666666666667
sg41
g5
sg42
I300000
sg43
g5
sg44
I29
sg45
g7
(g8
(I0
tp4592
g10
tp4593
Rp4594
(I1
(I1
tp4595
g17
I00
S'\xde\xdd\xdd\xdd\xdd\xdd\xdd?'
p4596
tp4597
bsg52
I7
sg53
F0.09294871794871795
sg54
I307301
sg55
g7
(g8
(I0
tp4598
g10
tp4599
Rp4600
(I1
(I1
tp4601
g17
I00
S'P\x88\xb0\x90\xd4^\xdb?'
p4602
tp4603
bsg62
g7
(g8
(I0
tp4604
g10
tp4605
Rp4606
(I1
(I1
tp4607
g17
I00
S'333333\xa3?'
p4608
tp4609
bsg69
I261809
sg70
I477557
sg71
g5
sg72
g7
(g8
(I0
tp4610
g10
tp4611
Rp4612
(I1
(I1
tp4613
g17
I00
S'\x1f|\xf0\xc1\x07\x1f\xac?'
p4614
tp4615
bssS'BUCHANAN HAROLD G'
p4616
(dp4617
g3
I1088
sg4
g5
sg6
g7
(g8
(I0
tp4618
g10
tp4619
Rp4620
(I1
(I1
tp4621
g17
I00
S'\x00\x00\x00\x00\x00\x00\x00\x00'
p4622
tp4623
bsg22
g7
(g8
(I0
tp4624
g10
tp4625
Rp4626
(I1
(I1
tp4627
g17
I00
S'\xbb\\\xe1$Z\x91\xcc?'
p4628
tp4629
bsg29
I600
sg30
I00
sg31
g5
sg32
S'john.buchanan@enron.com'
p4630
sg34
I304805
sg35
g5
sg36
I23
sg37
g5
sg38
I125
sg39
I1215
sg40
F0.0
sg41
g5
sg42
I500000
sg43
I1014505
sg44
I0
sg45
g7
(g8
(I0
tp4631
g10
tp4632
Rp4633
(I1
(I1
tp4634
g17
I00
S'\x00\x00\x00\x00\x00\x00\x00\x00'
p4635
tp4636
bsg52
I0
sg53
F0.0
sg54
I189041
sg55
g7
(g8
(I0
tp4637
g10
tp4638
Rp4639
(I1
(I1
tp4640
g17
I00
S'\x00\x00\x00\x00\x00\x00\x00\x00'
p4641
tp4642
bsg62
g7
(g8
(I0
tp4643
g10
tp4644
Rp4645
(I1
(I1
tp4646
g17
I00
S'\x00\x00\x00\x00\x00\x00\xb0?'
p4647
tp4648
bsg69
I248017
sg70
I1054637
sg71
I825464
sg72
g7
(g8
(I0
tp4649
g10
tp4650
Rp4651
(I1
(I1
tp4652
g17
I00
S'\x00\x00\x00\x00\x00\x00\x00\x00'
p4653
tp4654
bssS'YEAP SOON'
p4655
(dp4656
g3
g5
sg4
g5
sg6
g7
(g8
(I0
tp4657
g10
tp4658
Rp4659
(I1
(I1
tp4660
g17
I00
S'\x00\x00\x00\x00\x00\x00\x00\x00'
p4661
tp4662
bsg22
g7
(g8
(I0
tp4663
g10
tp4664
Rp4665
(I1
(I1
tp4666
g17
I00
S'\x00\x00\x00\x00\x00\x00\x00\x00'
p4667
tp4668
bsg29
I55097
sg30
I00
sg31
g5
sg32
g5
sg34
g5
sg35
g5
sg36
g5
sg37
g5
sg38
g5
sg39
g5
sg40
g93
sg41
g5
sg42
g5
sg43
I192758
sg44
g5
sg45
g7
(g8
(I0
tp4669
g10
tp4670
Rp4671
(I1
(I1
tp4672
g17
I00
S'\x00\x00\x00\x00\x00\x00\x00\x00'
p4673
tp4674
bsg52
g5
sg53
g93
sg54
g5
sg55
g7
(g8
(I0
tp4675
g10
tp4676
Rp4677
(I1
(I1
tp4678
g17
I00
S'\x00\x00\x00\x00\x00\x00\x00\x00'
p4679
tp4680
bsg62
g7
(g8
(I0
tp4681
g10
tp4682
Rp4683
(I1
(I1
tp4684
g17
I00
S'\x00\x00\x00\x00\x00\x00\x00\x00'
p4685
tp4686
bsg69
g5
sg70
I55097
sg71
I192758
sg72
g7
(g8
(I0
tp4687
g10
tp4688
Rp4689
(I1
(I1
tp4690
g17
I00
S'\x00\x00\x00\x00\x00\x00\x00\x00'
p4691
tp4692
bssS'MURRAY JULIA H'
p4693
(dp4694
g3
I2192
sg4
g5
sg6
g7
(g8
(I0
tp4695
g10
tp4696
Rp4697
(I1
(I1
tp4698
g17
I00
S'\t*\x1c\xdd2\xe7j?'
p4699
tp4700
bsg22
g7
(g8
(I0
tp4701
g10
tp4702
Rp4703
(I1
(I1
tp4704
g17
I00
S';\x85\x9cl\xf7h\xca?'
p4705
tp4706
bsg29
I57580
sg30
I00
sg31
g5
sg32
S'julia.murray@enron.com'
p4707
sg34
I125000
sg35
g5
sg36
I395
sg37
g5
sg38
I45
sg39
I330
sg40
F0.044444444444444446
sg41
g5
sg42
I400000
sg43
I597461
sg44
I11
sg45
g7
(g8
(I0
tp4708
g10
tp4709
Rp4710
(I1
(I1
tp4711
g17
I00
S'\x17l\xc1\x16l\xc1\xa6?'
p4712
tp4713
bsg52
I2
sg53
F0.005018248175182482
sg54
I196983
sg55
g7
(g8
(I0
tp4714
g10
tp4715
Rp4716
(I1
(I1
tp4717
g17
I00
S'\x19\x94\xd5\\\xb7\xa4\x97?'
p4718
tp4719
bsg62
g7
(g8
(I0
tp4720
g10
tp4721
Rp4722
(I1
(I1
tp4723
g17
I00
S'\x99\x99\x99\x99\x99\x99\xa9?'
p4724
tp4725
bsg69
I229284
sg70
I812194
sg71
I400478
sg72
g7
(g8
(I0
tp4726
g10
tp4727
Rp4728
(I1
(I1
tp4729
g17
I00
S'VUUUUU\x95?'
p4730
tp4731
bssS'GARLAND C KEVIN'
p4732
(dp4733
g3
I209
sg4
g5
sg6
g7
(g8
(I0
tp4734
g10
tp4735
Rp4736
(I1
(I1
tp4737
g17
I00
S'x\xc3\x8f\xea\x12\xb3\xa6?'
p4738
tp4739
bsg22
g7
(g8
(I0
tp4740
g10
tp4741
Rp4742
(I1
(I1
tp4743
g17
I00
S'\xbf+\xdd1v\xb7\xca?'
p4744
tp4745
bsg29
I48405
sg30
I00
sg31
g5
sg32
S'kevin.garland@enron.com'
p4746
sg34
I375304
sg35
g5
sg36
I178
sg37
g5
sg38
I44
sg39
I60814
sg40
F0.6136363636363636
sg41
g5
sg42
I850000
sg43
I896153
sg44
I10
sg45
g7
(g8
(I0
tp4747
g10
tp4748
Rp4749
(I1
(I1
tp4750
g17
I00
S'\xa3\x8b.\xba\xe8\xa2\xe3?'
p4751
tp4752
bsg52
I27
sg53
F0.04784688995215311
sg54
I259907
sg55
g7
(g8
(I0
tp4753
g10
tp4754
Rp4755
(I1
(I1
tp4756
g17
I00
S'\xb2\xa0V|\xc3-\xcc?'
p4757
tp4758
bsg62
g7
(g8
(I0
tp4759
g10
tp4760
Rp4761
(I1
(I1
tp4762
g17
I00
S'333333\xbb?'
p4763
tp4764
bsg69
I231946
sg70
I1566469
sg71
I636246
sg72
g7
(g8
(I0
tp4765
g10
tp4766
Rp4767
(I1
(I1
tp4768
g17
I00
S'e\x93M6\xd9d\x93?'
p4769
tp4770
bssS'DODSON KEITH'
p4771
(dp4772
g3
I176
sg4
g5
sg6
g7
(g8
(I0
tp4773
g10
tp4774
Rp4775
(I1
(I1
tp4776
g17
I00
S'\x87\x1f\xd5%f-t?'
p4777
tp4778
bsg22
g7
(g8
(I0
tp4779
g10
tp4780
Rp4781
(I1
(I1
tp4782
g17
I00
S'\x93]O;\xc8t\xc9?'
p4783
tp4784
bsg29
I28164
sg30
I00
sg31
g5
sg32
S'keith.dodson@enron.com'
p4785
sg34
g5
sg35
g5
sg36
I114
sg37
g5
sg38
I14
sg39
I774
sg40
F0.21428571428571427
sg41
g5
sg42
I70000
sg43
g5
sg44
I10
sg45
g7
(g8
(I0
tp4786
g10
tp4787
Rp4788
(I1
(I1
tp4789
g17
I00
S'\xdb\xb6m\xdb\xb6m\xcb?'
p4790
tp4791
bsg52
I3
sg53
F0.056818181818181816
sg54
g5
sg55
g7
(g8
(I0
tp4792
g10
tp4793
Rp4794
(I1
(I1
tp4795
g17
I00
S'jo\xd3\x11,\xbb\xd0?'
p4796
tp4797
bsg62
g7
(g8
(I0
tp4798
g10
tp4799
Rp4800
(I1
(I1
tp4801
g17
I00
S'\xebQ\xb8\x1e\x85\xeb\x81?'
p4802
tp4803
bsg69
I221003
sg70
I319941
sg71
g5
sg72
g7
(g8
(I0
tp4804
g10
tp4805
Rp4806
(I1
(I1
tp4807
g17
I00
S'e\x93M6\xd9d\x93?'
p4808
tp4809
bssS'YEAGER F SCOTT'
p4810
(dp4811
g3
g5
sg4
g5
sg6
g7
(g8
(I0
tp4812
g10
tp4813
Rp4814
(I1
(I1
tp4815
g17
I00
S'\x00\x00\x00\x00\x00\x00\x00\x00'
p4816
tp4817
bsg22
g7
(g8
(I0
tp4818
g10
tp4819
Rp4820
(I1
(I1
tp4821
g17
I00
S'\xa5V>\x87\xe0>\xc2?'
p4822
tp4823
bsg29
I53947
sg30
I01
sg31
g5
sg32
S'scott.yeager@enron.com'
p4824
sg34
g5
sg35
g5
sg36
g5
sg37
g5
sg38
g5
sg39
I147950
sg40
g93
sg41
g5
sg42
g5
sg43
I11884758
sg44
g5
sg45
g7
(g8
(I0
tp4825
g10
tp4826
Rp4827
(I1
(I1
tp4828
g17
I00
S'\x00\x00\x00\x00\x00\x00\x00\x00'
p4829
tp4830
bsg52
g5
sg53
g93
sg54
I3576206
sg55
g7
(g8
(I0
tp4831
g10
tp4832
Rp4833
(I1
(I1
tp4834
g17
I00
S'\x00\x00\x00\x00\x00\x00\x00\x00'
p4835
tp4836
bsg62
g7
(g8
(I0
tp4837
g10
tp4838
Rp4839
(I1
(I1
tp4840
g17
I00
S'\x00\x00\x00\x00\x00\x00\x00\x00'
p4841
tp4842
bsg69
I158403
sg70
I360300
sg71
I8308552
sg72
g7
(g8
(I0
tp4843
g10
tp4844
Rp4845
(I1
(I1
tp4846
g17
I00
S'\x00\x00\x00\x00\x00\x00\x00\x00'
p4847
tp4848
bssS'HIRKO JOSEPH'
p4849
(dp4850
g3
g5
sg4
I10259
sg6
g7
(g8
(I0
tp4851
g10
tp4852
Rp4853
(I1
(I1
tp4854
g17
I00
S'\x00\x00\x00\x00\x00\x00\x00\x00'
p4855
tp4856
bsg22
g7
(g8
(I0
tp4857
g10
tp4858
Rp4859
(I1
(I1
tp4860
g17
I00
S'\x00\x00\x00\x00\x00\x00\x00\x00'
p4861
tp4862
bsg29
I77978
sg30
I01
sg31
g5
sg32
S'joe.hirko@enron.com'
p4863
sg34
g5
sg35
g5
sg36
g5
sg37
g5
sg38
g5
sg39
I2856
sg40
g93
sg41
g5
sg42
g5
sg43
I30766064
sg44
g5
sg45
g7
(g8
(I0
tp4864
g10
tp4865
Rp4866
(I1
(I1
tp4867
g17
I00
S'\x00\x00\x00\x00\x00\x00\x00\x00'
p4868
tp4869
bsg52
g5
sg53
g93
sg54
g5
sg55
g7
(g8
(I0
tp4870
g10
tp4871
Rp4872
(I1
(I1
tp4873
g17
I00
S'\x00\x00\x00\x00\x00\x00\x00\x00'
p4874
tp4875
bsg62
g7
(g8
(I0
tp4876
g10
tp4877
Rp4878
(I1
(I1
tp4879
g17
I00
S'\x00\x00\x00\x00\x00\x00\x00\x00'
p4880
tp4881
bsg69
g5
sg70
I91093
sg71
I30766064
sg72
g7
(g8
(I0
tp4882
g10
tp4883
Rp4884
(I1
(I1
tp4885
g17
I00
S'\x00\x00\x00\x00\x00\x00\x00\x00'
p4886
tp4887
bssS'DIETRICH JANET R'
p4888
(dp4889
g3
I2572
sg4
g5
sg6
g7
(g8
(I0
tp4890
g10
tp4891
Rp4892
(I1
(I1
tp4893
g17
I00
S'\xc8\xa4x\x81L\x8a\x97?'
p4894
tp4895
bsg22
g7
(g8
(I0
tp4896
g10
tp4897
Rp4898
(I1
(I1
tp4899
g17
I00
S'\xad\xbfR0\xc6\xce\xcc?'
p4900
tp4901
bsg29
I3475
sg30
I00
sg31
g5
sg32
S'janet.dietrich@enron.com'
p4902
sg34
I556416
sg35
g5
sg36
I1902
sg37
g5
sg38
I63
sg39
I473
sg40
F0.2222222222222222
sg41
g5
sg42
I600000
sg43
I1865087
sg44
I305
sg45
g7
(g8
(I0
tp4903
g10
tp4904
Rp4905
(I1
(I1
tp4906
g17
I00
S'\x1c\xc7q\x1c\xc7q\xcc?'
p4907
tp4908
bsg52
I14
sg53
F0.11858475894245724
sg54
I315068
sg55
g7
(g8
(I0
tp4909
g10
tp4910
Rp4911
(I1
(I1
tp4912
g17
I00
S'\xe2\xc5\xc0\xc7\xafu\xe1?'
p4913
tp4914
bsg62
g7
(g8
(I0
tp4915
g10
tp4916
Rp4917
(I1
(I1
tp4918
g17
I00
S'333333\xb3?'
p4919
tp4920
bsg69
I250100
sg70
I1410464
sg71
I1550019
sg72
g7
(g8
(I0
tp4921
g10
tp4922
Rp4923
(I1
(I1
tp4924
g17
I00
S'|\xf0\xc1\x07\x1f|\xe2?'
p4925
tp4926
bssS'DERRICK JR. JAMES V'
p4927
(dp4928
g3
I2181
sg4
g5
sg6
g7
(g8
(I0
tp4929
g10
tp4930
Rp4931
(I1
(I1
tp4932
g17
I00
S'F\x9a1\xca\x7f\xd0\xa0?'
p4933
tp4934
bsg22
g7
(g8
(I0
tp4935
g10
tp4936
Rp4937
(I1
(I1
tp4938
g17
I00
S'>\xaf\x11\xb5g[\xdc?'
p4939
tp4940
bsg29
I51124
sg30
I00
sg31
I-1284000
sg32
S'james.derrick@enron.com'
p4941
sg34
I484000
sg35
I-1787380
sg36
I1401
sg37
g5
sg38
I909
sg39
I7482
sg40
F0.022002200220022004
sg41
g5
sg42
I800000
sg43
I8831913
sg44
I64
sg45
g7
(g8
(I0
tp4942
g10
tp4943
Rp4944
(I1
(I1
tp4945
g17
I00
S'\x89G\x8a\xa9\xbe\x87\x96?'
p4946
tp4947
bsg52
I20
sg53
F0.029344337459880788
sg54
I1787380
sg55
g7
(g8
(I0
tp4948
g10
tp4949
Rp4950
(I1
(I1
tp4951
g17
I00
S"+M'U-H\xc1?"
p4952
tp4953
bsg62
g7
(g8
(I0
tp4954
g10
tp4955
Rp4956
(I1
(I1
tp4957
g17
I00
S'\x99\x99\x99\x99\x99\x99\xb9?'
p4958
tp4959
bsg69
I492375
sg70
I550981
sg71
I8831913
sg72
g7
(g8
(I0
tp4960
g10
tp4961
Rp4962
(I1
(I1
tp4963
g17
I00
S'\x08\x1f|\xf0\xc1\x07\xbf?'
p4964
tp4965
bssS'FREVERT MARK A'
p4966
(dp4967
g3
I3275
sg4
I6426990
sg6
g7
(g8
(I0
tp4968
g10
tp4969
Rp4970
(I1
(I1
tp4971
g17
I00
S'\x87\x1f\xd5%f-\x84?'
p4972
tp4973
bsg22
g7
(g8
(I0
tp4974
g10
tp4975
Rp4976
(I1
(I1
tp4977
g17
I00
S'\xa0FGi\x01\x8d\xee?'
p4978
tp4979
bsg29
I86987
sg30
I00
sg31
I-3367011
sg32
S'mark.frevert@enron.com'
p4980
sg34
I1617011
sg35
g5
sg36
I2979
sg37
I2000000
sg38
I21
sg39
I7427621
sg40
F0.2857142857142857
sg41
g5
sg42
I2000000
sg43
I14622185
sg44
I242
sg45
g7
(g8
(I0
tp4981
g10
tp4982
Rp4983
(I1
(I1
tp4984
g17
I00
S'\x92$I\x92$I\xd2?'
p4985
tp4986
bsg52
I6
sg53
F0.07389312977099237
sg54
I4188667
sg55
g7
(g8
(I0
tp4987
g10
tp4988
Rp4989
(I1
(I1
tp4990
g17
I00
S'\x0f\x9b\xaa\xdcX\xc2\xd5?'
p4991
tp4992
bsg62
g7
(g8
(I0
tp4993
g10
tp4994
Rp4995
(I1
(I1
tp4996
g17
I00
S'\x00\x00\x00\x00\x00\x00\xd0?'
p4997
tp4998
bsg69
I1060932
sg70
I17252530
sg71
I10433518
sg72
g7
(g8
(I0
tp4999
g10
tp5000
Rp5001
(I1
(I1
tp5002
g17
I00
S'VUUUUU\xdd?'
p5003
tp5004
bssS'PAI LOU L'
p5005
(dp5006
g3
g5
sg4
g5
sg6
g7
(g8
(I0
tp5007
g10
tp5008
Rp5009
(I1
(I1
tp5010
g17
I00
S'\x00\x00\x00\x00\x00\x00\x00\x00'
p5011
tp5012
bsg22
g7
(g8
(I0
tp5013
g10
tp5014
Rp5015
(I1
(I1
tp5016
g17
I00
S'\xa1o\xff\xe7\x1a*\xce?'
p5017
tp5018
bsg29
I32047
sg30
I00
sg31
g5
sg32
S'lou.pai@enron.com'
p5019
sg34
g5
sg35
g5
sg36
g5
sg37
g5
sg38
g5
sg39
I1829457
sg40
g93
sg41
g5
sg42
I1000000
sg43
I23817930
sg44
g5
sg45
g7
(g8
(I0
tp5020
g10
tp5021
Rp5022
(I1
(I1
tp5023
g17
I00
S'\x00\x00\x00\x00\x00\x00\x00\x00'
p5024
tp5025
bsg52
g5
sg53
g93
sg54
I8453763
sg55
g7
(g8
(I0
tp5026
g10
tp5027
Rp5028
(I1
(I1
tp5029
g17
I00
S'\x00\x00\x00\x00\x00\x00\x00\x00'
p5030
tp5031
bsg62
g7
(g8
(I0
tp5032
g10
tp5033
Rp5034
(I1
(I1
tp5035
g17
I00
S'\x00\x00\x00\x00\x00\x00\xc0?'
p5036
tp5037
bsg69
I261879
sg70
I3123383
sg71
I15364167
sg72
g7
(g8
(I0
tp5038
g10
tp5039
Rp5040
(I1
(I1
tp5041
g17
I00
S'\x00\x00\x00\x00\x00\x00\x00\x00'
p5042
tp5043
bssS'BAY FRANKLIN R'
p5044
(dp5045
g3
g5
sg4
I260455
sg6
g7
(g8
(I0
tp5046
g10
tp5047
Rp5048
(I1
(I1
tp5049
g17
I00
S'\x00\x00\x00\x00\x00\x00\x00\x00'
p5050
tp5051
bsg22
g7
(g8
(I0
tp5052
g10
tp5053
Rp5054
(I1
(I1
tp5055
g17
I00
S'\xee-dH@\x9b\xcb?'
p5056
tp5057
bsg29
I129142
sg30
I00
sg31
I-201641
sg32
S'frank.bay@enron.com'
p5058
sg34
g5
sg35
I-82782
sg36
g5
sg37
g5
sg38
g5
sg39
I69
sg40
g93
sg41
g5
sg42
I400000
sg43
I63014
sg44
g5
sg45
g7
(g8
(I0
tp5059
g10
tp5060
Rp5061
(I1
(I1
tp5062
g17
I00
S'\x00\x00\x00\x00\x00\x00\x00\x00'
p5063
tp5064
bsg52
g5
sg53
g93
sg54
I145796
sg55
g7
(g8
(I0
tp5065
g10
tp5066
Rp5067
(I1
(I1
tp5068
g17
I00
S'\x00\x00\x00\x00\x00\x00\x00\x00'
p5069
tp5070
bsg62
g7
(g8
(I0
tp5071
g10
tp5072
Rp5073
(I1
(I1
tp5074
g17
I00
S'\x99\x99\x99\x99\x99\x99\xa9?'
p5075
tp5076
bsg69
I239671
sg70
I827696
sg71
g5
sg72
g7
(g8
(I0
tp5077
g10
tp5078
Rp5079
(I1
(I1
tp5080
g17
I00
S'\x00\x00\x00\x00\x00\x00\x00\x00'
p5081
tp5082
bssS'HAYSLETT RODERICK J'
p5083
(dp5084
g3
I2649
sg4
g5
sg6
g7
(g8
(I0
tp5085
g10
tp5086
Rp5087
(I1
(I1
tp5088
g17
I00
S'\xebq\x91f\x8c\xf2\xaf?'
p5089
tp5090
bsg22
g7
(g8
(I0
tp5091
g10
tp5092
Rp5093
(I1
(I1
tp5094
g17
I00
S'\x00\x00\x00\x00\x00\x00\x00\x00'
p5095
tp5096
bsg29
g5
sg30
I00
sg31
g5
sg32
S'rod.hayslett@enron.com'
p5097
sg34
g5
sg35
g5
sg36
I571
sg37
g5
sg38
I1061
sg39
g5
sg40
F0.03581526861451461
sg41
g5
sg42
g5
sg43
I346663
sg44
I35
sg45
g7
(g8
(I0
tp5098
g10
tp5099
Rp5100
(I1
(I1
tp5101
g17
I00
S'\xc7(\xcb\xfe`V\xa2?'
p5102
tp5103
bsg52
I38
sg53
F0.01321253303133258
sg54
I346663
sg55
g7
(g8
(I0
tp5104
g10
tp5105
Rp5106
(I1
(I1
tp5107
g17
I00
S'4\xa0\xff9\x17 \xaf?'
p5108
tp5109
bsg62
g7
(g8
(I0
tp5110
g10
tp5111
Rp5112
(I1
(I1
tp5113
g17
I00
S'\x00\x00\x00\x00\x00\x00\x00\x00'
p5114
tp5115
bsg69
g5
sg70
g5
sg71
g5
sg72
g7
(g8
(I0
tp5116
g10
tp5117
Rp5118
(I1
(I1
tp5119
g17
I00
S'\xf8\xe0\x83\x0f>\xf8\xb0?'
p5120
tp5121
bssS'FUGH JOHN L'
p5122
(dp5123
g3
g5
sg4
I50591
sg6
g7
(g8
(I0
tp5124
g10
tp5125
Rp5126
(I1
(I1
tp5127
g17
I00
S'\x00\x00\x00\x00\x00\x00\x00\x00'
p5128
tp5129
bsg22
g7
(g8
(I0
tp5130
g10
tp5131
Rp5132
(I1
(I1
tp5133
g17
I00
S'\x00\x00\x00\x00\x00\x00\x00\x00'
p5134
tp5135
bsg29
g5
sg30
I00
sg31
g5
sg32
g5
sg34
g5
sg35
g5
sg36
g5
sg37
g5
sg38
g5
sg39
g5
sg40
g93
sg41
g5
sg42
g5
sg43
I176378
sg44
g5
sg45
g7
(g8
(I0
tp5136
g10
tp5137
Rp5138
(I1
(I1
tp5139
g17
I00
S'\x00\x00\x00\x00\x00\x00\x00\x00'
p5140
tp5141
bsg52
g5
sg53
g93
sg54
g5
sg55
g7
(g8
(I0
tp5142
g10
tp5143
Rp5144
(I1
(I1
tp5145
g17
I00
S'\x00\x00\x00\x00\x00\x00\x00\x00'
p5146
tp5147
bsg62
g7
(g8
(I0
tp5148
g10
tp5149
Rp5150
(I1
(I1
tp5151
g17
I00
S'\x00\x00\x00\x00\x00\x00\x00\x00'
p5152
tp5153
bsg69
g5
sg70
I50591
sg71
I176378
sg72
g7
(g8
(I0
tp5154
g10
tp5155
Rp5156
(I1
(I1
tp5157
g17
I00
S'\x00\x00\x00\x00\x00\x00\x00\x00'
p5158
tp5159
bssS'FALLON JAMES B'
p5160
(dp5161
g3
I1755
sg4
g5
sg6
g7
(g8
(I0
tp5162
g10
tp5163
Rp5164
(I1
(I1
tp5165
g17
I00
S'\x9a\x90\xa8\xcfR\x1b\xaf?'
p5166
tp5167
bsg22
g7
(g8
(I0
tp5168
g10
tp5169
Rp5170
(I1
(I1
tp5171
g17
I00
S'\xf6\x8b\x168\xbd\x8a\xd1?'
p5172
tp5173
bsg29
I95924
sg30
I00
sg31
g5
sg32
S'jim.fallon@enron.com'
p5174
sg34
I374347
sg35
g5
sg36
I1604
sg37
g5
sg38
I75
sg39
I401481
sg40
F0.49333333333333335
sg41
g5
sg42
I2500000
sg43
I2332399
sg44
I42
sg45
g7
(g8
(I0
tp5175
g10
tp5176
Rp5177
(I1
(I1
tp5178
g17
I00
S'\x93_,\xf9\xc5\x92\xdf?'
p5179
tp5180
bsg52
I37
sg53
F0.023931623931623933
sg54
I1392142
sg55
g7
(g8
(I0
tp5181
g10
tp5182
Rp5183
(I1
(I1
tp5184
g17
I00
S'Qq\x1a\xd8:0\xbc?'
p5185
tp5186
bsg62
g7
(g8
(I0
tp5187
g10
tp5188
Rp5189
(I1
(I1
tp5190
g17
I00
S'\x00\x00\x00\x00\x00\x00\xd4?'
p5191
tp5192
bsg69
I304588
sg70
I3676340
sg71
I940257
sg72
g7
(g8
(I0
tp5193
g10
tp5194
Rp5195
(I1
(I1
tp5196
g17
I00
S']t\xd1E\x17]\xb4?'
p5197
tp5198
bssS'KOENIG MARK E'
p5199
(dp5200
g3
I2374
sg4
g5
sg6
g7
(g8
(I0
tp5201
g10
tp5202
Rp5203
(I1
(I1
tp5204
g17
I00
S'hgJ\xaf\xbf8\x99?'
p5205
tp5206
bsg22
g7
(g8
(I0
tp5207
g10
tp5208
Rp5209
(I1
(I1
tp5210
g17
I00
S'\xdaS\x7fQ\xbc\xd9\xd1?'
p5211
tp5212
bsg29
I127017
sg30
I01
sg31
g5
sg32
S'mark.koenig@enron.com'
p5213
sg34
I300000
sg35
g5
sg36
I2271
sg37
g5
sg38
I61
sg39
I150458
sg40
F0.2459016393442623
sg41
g5
sg42
I700000
sg43
I1920055
sg44
I53
sg45
g7
(g8
(I0
tp5214
g10
tp5215
Rp5216
(I1
(I1
tp5217
g17
I00
S'.\x19\x82u\xb4y\xcf?'
p5218
tp5219
bsg52
I15
sg53
F0.02232518955349621
sg54
I1248318
sg55
g7
(g8
(I0
tp5220
g10
tp5221
Rp5222
(I1
(I1
tp5223
g17
I00
S'(1\xc8I\xd5K\xba?'
p5224
tp5225
bsg62
g7
(g8
(I0
tp5226
g10
tp5227
Rp5228
(I1
(I1
tp5229
g17
I00
S'ffffff\xb6?'
p5230
tp5231
bsg69
I309946
sg70
I1587421
sg71
I671737
sg72
g7
(g8
(I0
tp5232
g10
tp5233
Rp5234
(I1
(I1
tp5235
g17
I00
S'\xb3\xc9&\x9bl\xb2\xb9?'
p5236
tp5237
bssS'SAVAGE FRANK'
p5238
(dp5239
g3
g5
sg4
g5
sg6
g7
(g8
(I0
tp5240
g10
tp5241
Rp5242
(I1
(I1
tp5243
g17
I00
S'\x00\x00\x00\x00\x00\x00\x00\x00'
p5244
tp5245
bsg22
g7
(g8
(I0
tp5246
g10
tp5247
Rp5248
(I1
(I1
tp5249
g17
I00
S'\x00\x00\x00\x00\x00\x00\x00\x00'
p5250
tp5251
bsg29
g5
sg30
I00
sg31
I-121284
sg32
g5
sg34
g5
sg35
g5
sg36
g5
sg37
g5
sg38
g5
sg39
g5
sg40
g93
sg41
I125034
sg42
g5
sg43
g5
sg44
g5
sg45
g7
(g8
(I0
tp5252
g10
tp5253
Rp5254
(I1
(I1
tp5255
g17
I00
S'\x00\x00\x00\x00\x00\x00\x00\x00'
p5256
tp5257
bsg52
g5
sg53
g93
sg54
g5
sg55
g7
(g8
(I0
tp5258
g10
tp5259
Rp5260
(I1
(I1
tp5261
g17
I00
S'\x00\x00\x00\x00\x00\x00\x00\x00'
p5262
tp5263
bsg62
g7
(g8
(I0
tp5264
g10
tp5265
Rp5266
(I1
(I1
tp5267
g17
I00
S'\x00\x00\x00\x00\x00\x00\x00\x00'
p5268
tp5269
bsg69
g5
sg70
I3750
sg71
g5
sg72
g7
(g8
(I0
tp5270
g10
tp5271
Rp5272
(I1
(I1
tp5273
g17
I00
S'\x00\x00\x00\x00\x00\x00\x00\x00'
p5274
tp5275
bssS'IZZO LAWRENCE L'
p5276
(dp5277
g3
I496
sg4
g5
sg6
g7
(g8
(I0
tp5278
g10
tp5279
Rp5280
(I1
(I1
tp5281
g17
I00
S'F\x9a1\xca\x7f\xd0\x80?'
p5282
tp5283
bsg22
g7
(g8
(I0
tp5284
g10
tp5285
Rp5286
(I1
(I1
tp5287
g17
I00
S'\x93>\x87\x16\x00\xa5\xb3?'
p5288
tp5289
bsg29
I28093
sg30
I00
sg31
g5
sg32
S'larry.izzo@enron.com'
p5290
sg34
I312500
sg35
g5
sg36
I437
sg37
g5
sg38
I19
sg39
I1553729
sg40
F0.2631578947368421
sg41
g5
sg42
g5
sg43
I5819980
sg44
I28
sg45
g7
(g8
(I0
tp5291
g10
tp5292
Rp5293
(I1
(I1
tp5294
g17
I00
S'y\r\xe55\x94\xd7\xd0?'
p5295
tp5296
bsg52
I5
sg53
F0.056451612903225805
sg54
I3654808
sg55
g7
(g8
(I0
tp5297
g10
tp5298
Rp5299
(I1
(I1
tp5300
g17
I00
S'\x1d\x1c`\xed\x89\x9f\xd0?'
p5301
tp5302
bsg62
g7
(g8
(I0
tp5303
g10
tp5304
Rp5305
(I1
(I1
tp5306
g17
I00
S'\x00\x00\x00\x00\x00\x00\x00\x00'
p5307
tp5308
bsg69
I85274
sg70
I1979596
sg71
I2165172
sg72
g7
(g8
(I0
tp5309
g10
tp5310
Rp5311
(I1
(I1
tp5312
g17
I00
S"'\x9bl\xb2\xc9&\xab?"
p5313
tp5314
bssS'TILNEY ELIZABETH A'
p5315
(dp5316
g3
I460
sg4
g5
sg6
g7
(g8
(I0
tp5317
g10
tp5318
Rp5319
(I1
(I1
tp5320
g17
I00
S'\xe6\\\x03\xf8\xf2~\x92?'
p5321
tp5322
bsg22
g7
(g8
(I0
tp5323
g10
tp5324
Rp5325
(I1
(I1
tp5326
g17
I00
S'{\xfa\x16\x8bT}\xcc?'
p5327
tp5328
bsg29
g5
sg30
I00
sg31
I-575000
sg32
S'elizabeth.tilney@enron.com'
p5329
sg34
I275000
sg35
g5
sg36
I379
sg37
g5
sg38
I19
sg39
I152055
sg40
F0.5789473684210527
sg41
g5
sg42
I300000
sg43
I1168042
sg44
I10
sg45
g7
(g8
(I0
tp5330
g10
tp5331
Rp5332
(I1
(I1
tp5333
g17
I00
S'l(\xaf\xa1\xbc\x86\xe2?'
p5334
tp5335
bsg52
I11
sg53
F0.021739130434782608
sg54
I576792
sg55
g7
(g8
(I0
tp5336
g10
tp5337
Rp5338
(I1
(I1
tp5339
g17
I00
S'\xd0\x19+\x9a\x1d\x9b\xb9?'
p5340
tp5341
bsg62
g7
(g8
(I0
tp5342
g10
tp5343
Rp5344
(I1
(I1
tp5345
g17
I00
S'333333\xa3?'
p5346
tp5347
bsg69
I247338
sg70
I399393
sg71
I591250
sg72
g7
(g8
(I0
tp5348
g10
tp5349
Rp5350
(I1
(I1
tp5351
g17
I00
S'e\x93M6\xd9d\x93?'
p5352
tp5353
bssS'MARTIN AMANDA K'
p5354
(dp5355
g3
I1522
sg4
I85430
sg6
g7
(g8
(I0
tp5356
g10
tp5357
Rp5358
(I1
(I1
tp5359
g17
I00
S'\x00\x00\x00\x00\x00\x00\x00\x00'
p5360
tp5361
bsg22
g7
(g8
(I0
tp5362
g10
tp5363
Rp5364
(I1
(I1
tp5365
g17
I00
S'\xad\x89\x91\xdd\xb6 \xd4?'
p5366
tp5367
bsg29
I8211
sg30
I00
sg31
g5
sg32
S'a..martin@enron.com'
p5368
sg34
I5145434
sg35
g5
sg36
I477
sg37
g5
sg38
I230
sg39
I2818454
sg40
F0.0
sg41
g5
sg42
g5
sg43
I2070306
sg44
I8
sg45
g7
(g8
(I0
tp5369
g10
tp5370
Rp5371
(I1
(I1
tp5372
g17
I00
S'\x00\x00\x00\x00\x00\x00\x00\x00'
p5373
tp5374
bsg52
I0
sg53
F0.005256241787122208
sg54
g5
sg55
g7
(g8
(I0
tp5375
g10
tp5376
Rp5377
(I1
(I1
tp5378
g17
I00
S'\x8a\x0ew*\xc5\xc3\x98?'
p5379
tp5380
bsg62
g7
(g8
(I0
tp5381
g10
tp5382
Rp5383
(I1
(I1
tp5384
g17
I00
S'\x00\x00\x00\x00\x00\x00\x00\x00'
p5385
tp5386
bsg69
I349487
sg70
I8407016
sg71
I2070306
sg72
g7
(g8
(I0
tp5387
g10
tp5388
Rp5389
(I1
(I1
tp5390
g17
I00
S'\x08\x1f|\xf0\xc1\x07\x8f?'
p5391
tp5392
bssS'BUY RICHARD B'
p5393
(dp5394
g3
I3523
sg4
I649584
sg6
g7
(g8
(I0
tp5395
g10
tp5396
Rp5397
(I1
(I1
tp5398
g17
I00
S'\xa2>Km|\xd8\xbd?'
p5399
tp5400
bsg22
g7
(g8
(I0
tp5401
g10
tp5402
Rp5403
(I1
(I1
tp5404
g17
I00
S'\x19\xac\x88ot\t\xd3?'
p5405
tp5406
bsg29
g5
sg30
I00
sg31
I-694862
sg32
S'rick.buy@enron.com'
p5407
sg34
I769862
sg35
g5
sg36
I2333
sg37
g5
sg38
I1053
sg39
I400572
sg40
F0.06742640075973409
sg41
g5
sg42
I900000
sg43
I3444470
sg44
I156
sg45
g7
(g8
(I0
tp5408
g10
tp5409
Rp5410
(I1
(I1
tp5411
g17
I00
S'\x83i&J\xdbB\xb1?'
p5412
tp5413
bsg52
I71
sg53
F0.04428044280442804
sg54
I901657
sg55
g7
(g8
(I0
tp5414
g10
tp5415
Rp5416
(I1
(I1
tp5417
g17
I00
S'\xf2\xec\xb3\x08\x0f\x14\xca?'
p5418
tp5419
bsg62
g7
(g8
(I0
tp5420
g10
tp5421
Rp5422
(I1
(I1
tp5423
g17
I00
S'\xcc\xcc\xcc\xcc\xcc\xcc\xbc?'
p5424
tp5425
bsg69
I330546
sg70
I2355702
sg71
I2542813
sg72
g7
(g8
(I0
tp5426
g10
tp5427
Rp5428
(I1
(I1
tp5429
g17
I00
S'\xe9\xa2\x8b.\xba\xe8\xd2?'
p5430
tp5431
bssS'GRAMM WENDY L'
p5432
(dp5433
g3
g5
sg4
g5
sg6
g7
(g8
(I0
tp5434
g10
tp5435
Rp5436
(I1
(I1
tp5437
g17
I00
S'\x00\x00\x00\x00\x00\x00\x00\x00'
p5438
tp5439
bsg22
g7
(g8
(I0
tp5440
g10
tp5441
Rp5442
(I1
(I1
tp5443
g17
I00
S'\x00\x00\x00\x00\x00\x00\x00\x00'
p5444
tp5445
bsg29
g5
sg30
I00
sg31
g5
sg32
g5
sg34
g5
sg35
g5
sg36
g5
sg37
g5
sg38
g5
sg39
g5
sg40
g93
sg41
I119292
sg42
g5
sg43
g5
sg44
g5
sg45
g7
(g8
(I0
tp5446
g10
tp5447
Rp5448
(I1
(I1
tp5449
g17
I00
S'\x00\x00\x00\x00\x00\x00\x00\x00'
p5450
tp5451
bsg52
g5
sg53
g93
sg54
g5
sg55
g7
(g8
(I0
tp5452
g10
tp5453
Rp5454
(I1
(I1
tp5455
g17
I00
S'\x00\x00\x00\x00\x00\x00\x00\x00'
p5456
tp5457
bsg62
g7
(g8
(I0
tp5458
g10
tp5459
Rp5460
(I1
(I1
tp5461
g17
I00
S'\x00\x00\x00\x00\x00\x00\x00\x00'
p5462
tp5463
bsg69
g5
sg70
I119292
sg71
g5
sg72
g7
(g8
(I0
tp5464
g10
tp5465
Rp5466
(I1
(I1
tp5467
g17
I00
S'\x00\x00\x00\x00\x00\x00\x00\x00'
p5468
tp5469
bssS'CAUSEY RICHARD A'
p5470
(dp5471
g3
I1892
sg4
g5
sg6
g7
(g8
(I0
tp5472
g10
tp5473
Rp5474
(I1
(I1
tp5475
g17
I00
S'\x87\x1f\xd5%f-\x94?'
p5476
tp5477
bsg22
g7
(g8
(I0
tp5478
g10
tp5479
Rp5480
(I1
(I1
tp5481
g17
I00
S'\x80=\xc9\xd3f\xe9\xd7?'
p5482
tp5483
bsg29
I30674
sg30
I01
sg31
I-235000
sg32
S'richard.causey@enron.com'
p5484
sg34
I350000
sg35
g5
sg36
I1585
sg37
g5
sg38
I49
sg39
I307895
sg40
F0.24489795918367346
sg41
g5
sg42
I1000000
sg43
I2502063
sg44
I58
sg45
g7
(g8
(I0
tp5485
g10
tp5486
Rp5487
(I1
(I1
tp5488
g17
I00
S'\xd6\x87\xc6\xfa\xd0X\xcf?'
p5489
tp5490
bsg52
I12
sg53
F0.0306553911205074
sg54
I2502063
sg55
g7
(g8
(I0
tp5491
g10
tp5492
Rp5493
(I1
(I1
tp5494
g17
I00
S'K\xefLq\xd7\r\xc2?'
p5495
tp5496
bsg62
g7
(g8
(I0
tp5497
g10
tp5498
Rp5499
(I1
(I1
tp5500
g17
I00
S'\x00\x00\x00\x00\x00\x00\xc0?'
p5501
tp5502
bsg69
I415189
sg70
I1868758
sg71
g5
sg72
g7
(g8
(I0
tp5503
g10
tp5504
Rp5505
(I1
(I1
tp5506
g17
I00
S'\x1f|\xf0\xc1\x07\x1f\xbc?'
p5507
tp5508
bssS'TAYLOR MITCHELL S'
p5509
(dp5510
g3
I533
sg4
I227449
sg6
g7
(g8
(I0
tp5511
g10
tp5512
Rp5513
(I1
(I1
tp5514
g17
I00
S'\x00\x00\x00\x00\x00\x00\x00\x00'
p5515
tp5516
bsg22
g7
(g8
(I0
tp5517
g10
tp5518
Rp5519
(I1
(I1
tp5520
g17
I00
S'\xad{)\xfcq\x8c\xce?'
p5521
tp5522
bsg29
g5
sg30
I00
sg31
g5
sg32
S'mitchell.taylor@enron.com'
p5523
sg34
g5
sg35
g5
sg36
I300
sg37
g5
sg38
I29
sg39
g5
sg40
F0.0
sg41
g5
sg42
I600000
sg43
I3745048
sg44
I0
sg45
g7
(g8
(I0
tp5524
g10
tp5525
Rp5526
(I1
(I1
tp5527
g17
I00
S'\x00\x00\x00\x00\x00\x00\x00\x00'
p5528
tp5529
bsg52
I0
sg53
F0.0
sg54
I563798
sg55
g7
(g8
(I0
tp5530
g10
tp5531
Rp5532
(I1
(I1
tp5533
g17
I00
S'\x00\x00\x00\x00\x00\x00\x00\x00'
p5534
tp5535
bsg62
g7
(g8
(I0
tp5536
g10
tp5537
Rp5538
(I1
(I1
tp5539
g17
I00
S'333333\xb3?'
p5540
tp5541
bsg69
I265214
sg70
I1092663
sg71
I3181250
sg72
g7
(g8
(I0
tp5542
g10
tp5543
Rp5544
(I1
(I1
tp5545
g17
I00
S'\x00\x00\x00\x00\x00\x00\x00\x00'
p5546
tp5547
bssS'DONAHUE JR JEFFREY M'
p5548
(dp5549
g3
I865
sg4
g5
sg6
g7
(g8
(I0
tp5550
g10
tp5551
Rp5552
(I1
(I1
tp5553
g17
I00
S'\xe6\\\x03\xf8\xf2~\x92?'
p5554
tp5555
bsg22
g7
(g8
(I0
tp5556
g10
tp5557
Rp5558
(I1
(I1
tp5559
g17
I00
S'k^\xaf\x8b\x98\x0b\xd0?'
p5560
tp5561
bsg29
I96268
sg30
I00
sg31
I-300000
sg32
S'jeff.donahue@enron.com'
p5562
sg34
g5
sg35
g5
sg36
I772
sg37
g5
sg38
I22
sg39
I891
sg40
F0.5
sg41
g5
sg42
I800000
sg43
I1080988
sg44
I188
sg45
g7
(g8
(I0
tp5563
g10
tp5564
Rp5565
(I1
(I1
tp5566
g17
I00
S'\x00\x00\x00\x00\x00\x00\xe0?'
p5567
tp5568
bsg52
I11
sg53
F0.21734104046242775
sg54
I315068
sg55
g7
(g8
(I0
tp5569
g10
tp5570
Rp5571
(I1
(I1
tp5572
g17
I00
S'\x00\x00\x00\x00\x00\x00\xf0?'
p5573
tp5574
bsg62
g7
(g8
(I0
tp5575
g10
tp5576
Rp5577
(I1
(I1
tp5578
g17
I00
S'\x99\x99\x99\x99\x99\x99\xb9?'
p5579
tp5580
bsg69
I278601
sg70
I875760
sg71
I765920
sg72
g7
(g8
(I0
tp5581
g10
tp5582
Rp5583
(I1
(I1
tp5584
g17
I00
S'\xca&\x9bl\xb2\xc9\xd6?'
p5585
tp5586
bssS'GLISAN JR BEN F'
p5587
(dp5588
g3
I873
sg4
g5
sg6
g7
(g8
(I0
tp5589
g10
tp5590
Rp5591
(I1
(I1
tp5592
g17
I00
S'\x87\x1f\xd5%f-\x84?'
p5593
tp5594
bsg22
g7
(g8
(I0
tp5595
g10
tp5596
Rp5597
(I1
(I1
tp5598
g17
I00
S'\xd3\xcf\x94SE\xac\xcf?'
p5599
tp5600
bsg29
I125978
sg30
I01
sg31
g5
sg32
S'ben.glisan@enron.com'
p5601
sg34
I71023
sg35
g5
sg36
I874
sg37
g5
sg38
I16
sg39
I200308
sg40
F0.375
sg41
g5
sg42
I600000
sg43
I778546
sg44
I52
sg45
g7
(g8
(I0
tp5602
g10
tp5603
Rp5604
(I1
(I1
tp5605
g17
I00
S'\x00\x00\x00\x00\x00\x00\xd8?'
p5606
tp5607
bsg52
I6
sg53
F0.05956471935853379
sg54
I393818
sg55
g7
(g8
(I0
tp5608
g10
tp5609
Rp5610
(I1
(I1
tp5611
g17
I00
S'\xa9\x05cw7\x8a\xd1?'
p5612
tp5613
bsg62
g7
(g8
(I0
tp5614
g10
tp5615
Rp5616
(I1
(I1
tp5617
g17
I00
S'333333\xb3?'
p5618
tp5619
bsg69
I274975
sg70
I1272284
sg71
I384728
sg72
g7
(g8
(I0
tp5620
g10
tp5621
Rp5622
(I1
(I1
tp5623
g17
I00
S'6\xd9d\x93M6\xb9?'
p5624
tp5625
bss.